
Image.out:     file format elf32-littlearm


Disassembly of section .text:

00000000 <g_pfnVectors>:

const piniod_t __input_pins [] = INPUT_PIN_LIST;

void pin_sensor_init () { __pinsen_setedge_irq; }

void pin_sensor_read (word st, const byte *junk, address val) {
       0:	20005000 	andcs	r5, r0, r0

	const piniod_t *p;
	word i;
	byte v;

	if (val == NULL) {
       4:	00001c31 	andeq	r1, r0, r1, lsr ip
		// Called to issue a wait request
		if (st == WNONE)
       8:	00001c2b 	andeq	r1, r0, fp, lsr #24
       c:	00001c2d 	andeq	r1, r0, sp, lsr #24
			// Make sure this is not WNONE
			return;
		cli;
		__pinsen_clear_and_enable;
      10:	00001c2f 	andeq	r1, r0, pc, lsr #24
      14:	00001c2f 	andeq	r1, r0, pc, lsr #24
		when (&__input_pins, st);
      18:	00001c2f 	andeq	r1, r0, pc, lsr #24
	...
	}

	*val = 0;
	for (i = 0, p = __input_pins;
	    	    i < sizeof (__input_pins) / sizeof (piniod_t); i++, p++)
		*val |= __port_in_value (p) << i;
      2c:	00001c2f 	andeq	r1, r0, pc, lsr #24
      30:	00001c2f 	andeq	r1, r0, pc, lsr #24
    ASSERT( dioNumberLegal( dioNumber ));

    //
    // Return the input value from the specified DIO.
    //
    return (( HWREG( GPIO_BASE + GPIO_O_DIN31_0 ) >> dioNumber ) & 1 );
      34:	00000000 	andeq	r0, r0, r0
      38:	00001c2f 	andeq	r1, r0, pc, lsr #24
      3c:	00001c2f 	andeq	r1, r0, pc, lsr #24
      40:	0000096d 	andeq	r0, r0, sp, ror #18
      44:	00001c2f 	andeq	r1, r0, pc, lsr #24
      48:	00001c2f 	andeq	r1, r0, pc, lsr #24
}
      4c:	00001c2f 	andeq	r1, r0, pc, lsr #24
      50:	0000052d 	andeq	r0, r0, sp, lsr #10
      54:	0000082d 	andeq	r0, r0, sp, lsr #16
	if (!button_still_pressed (__button_list [pbutton]))
		goto Done;

	if (BUTTON_REPEAT (__button_list [pbutton])) {
		// Wait for repeat
		delay (BUTTON_REPEAT_DELAY, BU_LOOP);
      58:	00001c2f 	andeq	r1, r0, pc, lsr #24
	    pbutton++) {
      5c:	00001c2f 	andeq	r1, r0, pc, lsr #24
      60:	00001c2f 	andeq	r1, r0, pc, lsr #24
	if (!button_still_pressed (__button_list [pbutton]))
      64:	000025f5 	strdeq	r2, [r0], -r5
      68:	00001c2f 	andeq	r1, r0, pc, lsr #24
      6c:	00001c2f 	andeq	r1, r0, pc, lsr #24
      70:	00001c2f 	andeq	r1, r0, pc, lsr #24
      74:	00001c2f 	andeq	r1, r0, pc, lsr #24
	if (BUTTON_REPEAT (__button_list [pbutton])) {
      78:	00001c2f 	andeq	r1, r0, pc, lsr #24
      7c:	00001c2f 	andeq	r1, r0, pc, lsr #24
		delay (BUTTON_REPEAT_DELAY, BU_LOOP);
      80:	00001c2f 	andeq	r1, r0, pc, lsr #24
      84:	00001c2f 	andeq	r1, r0, pc, lsr #24
	} else
		goto Debounce;

  entry (BU_LOOP)

	if (!button_still_pressed (__button_list [pbutton]))
      88:	00001c2f 	andeq	r1, r0, pc, lsr #24
      8c:	00001c2f 	andeq	r1, r0, pc, lsr #24
      90:	00001c2f 	andeq	r1, r0, pc, lsr #24
      94:	00001c2f 	andeq	r1, r0, pc, lsr #24
      98:	00001c2f 	andeq	r1, r0, pc, lsr #24
		goto Done;

	if (baction == NULL)
      9c:	00001c2f 	andeq	r1, r0, pc, lsr #24
      a0:	00001c2f 	andeq	r1, r0, pc, lsr #24
		goto Term;

	(*baction) (pbutton);
      a4:	00001c2f 	andeq	r1, r0, pc, lsr #24

	delay (BUTTON_REPEAT_INTERVAL, BU_LOOP);

endthread
      a8:	00001c2f 	andeq	r1, r0, pc, lsr #24
	delay (BUTTON_REPEAT_INTERVAL, BU_LOOP);
      ac:	00001c2f 	andeq	r1, r0, pc, lsr #24
      b0:	00001c2f 	andeq	r1, r0, pc, lsr #24
endthread
      b4:	00001c2f 	andeq	r1, r0, pc, lsr #24
      b8:	00001c2f 	andeq	r1, r0, pc, lsr #24
      bc:	00001c2f 	andeq	r1, r0, pc, lsr #24
      c0:	00001c2f 	andeq	r1, r0, pc, lsr #24
      c4:	00001c2f 	andeq	r1, r0, pc, lsr #24

000000c8 <receiver>:
    byte receiverId;
    byte sequenceNumber;
    byte payload[PAYLOAD_LENGTH];
} message;

fsm receiver {
      c8:	b507      	push	{r0, r1, r2, lr}
      ca:	2804      	cmp	r0, #4
      cc:	d840      	bhi.n	150 <_Min_Stack_Size+0x50>
      ce:	e8df f000 	tbb	[pc, r0]
      d2:	211a0a03 	tstcs	sl, r3, lsl #20
      d6:	4b200025 	blmi	800172 <__ccfg+0x7e01ca>
    address packet;
    message * receivedMessage;

    state Receiving:
        packet = tcv_rnp(Receiving, sfd);
      da:	2000      	movs	r0, #0
      dc:	6819      	ldr	r1, [r3, #0]
      de:	f001 fbbd 	bl	185c <tcv_rnp>
      e2:	4b1f      	ldr	r3, [pc, #124]	; (160 <_Min_Stack_Size+0x60>)
      e4:	6018      	str	r0, [r3, #0]
    
    state Get_Message:
        receivedMessage = (message *)(packet + 1);
      e6:	4b1e      	ldr	r3, [pc, #120]	; (160 <_Min_Stack_Size+0x60>)
      e8:	4a1e      	ldr	r2, [pc, #120]	; (164 <_Min_Stack_Size+0x64>)
      ea:	681b      	ldr	r3, [r3, #0]
      ec:	1c99      	adds	r1, r3, #2
      ee:	6011      	str	r1, [r2, #0]

        if(receivedMessage->receiverId == nodeId) {
      f0:	4a1d      	ldr	r2, [pc, #116]	; (168 <_Min_Stack_Size+0x68>)
      f2:	78db      	ldrb	r3, [r3, #3]
      f4:	7812      	ldrb	r2, [r2, #0]
      f6:	429a      	cmp	r2, r3
      f8:	d124      	bne.n	144 <_Min_Stack_Size+0x44>
            proceed From_Direct;
      fa:	2002      	movs	r0, #2
        } else if (receivedMessage->receiverId == '0' || receivedMessage->receiverId == 0) {
            proceed From_Broadcast;
      fc:	f000 ffdc 	bl	10b8 <proceed>
        }

        proceed Receiving;
     100:	2000      	movs	r0, #0
     102:	f000 ffd9 	bl	10b8 <proceed>
    
    state From_Direct:
        ser_outf(Get_Message, "Message ");
     106:	2001      	movs	r0, #1
     108:	4918      	ldr	r1, [pc, #96]	; (16c <_Min_Stack_Size+0x6c>)
     10a:	f001 fea1 	bl	1e50 <ser_outf>
        proceed Show_Message;
     10e:	2004      	movs	r0, #4
     110:	f000 ffd2 	bl	10b8 <proceed>
    
    state From_Broadcast:
        ser_outf(From_Broadcast, "Broadcast ");
     114:	2003      	movs	r0, #3
     116:	4916      	ldr	r1, [pc, #88]	; (170 <_Min_Stack_Size+0x70>)
     118:	f001 fe9a 	bl	1e50 <ser_outf>

    state Show_Message:
        ser_outf(Show_Message, "from node %d (Seq %d): %s\n\r", receivedMessage->senderId, receivedMessage->sequenceNumber, receivedMessage->payload);
     11c:	4b11      	ldr	r3, [pc, #68]	; (164 <_Min_Stack_Size+0x64>)
     11e:	2004      	movs	r0, #4
     120:	6819      	ldr	r1, [r3, #0]
     122:	788b      	ldrb	r3, [r1, #2]
     124:	f811 2b03 	ldrb.w	r2, [r1], #3
     128:	9100      	str	r1, [sp, #0]
     12a:	4912      	ldr	r1, [pc, #72]	; (174 <_Min_Stack_Size+0x74>)
     12c:	f001 fe90 	bl	1e50 <ser_outf>

        tcv_endp(packet);
     130:	4b0b      	ldr	r3, [pc, #44]	; (160 <_Min_Stack_Size+0x60>)
     132:	6818      	ldr	r0, [r3, #0]
     134:	f001 fae8 	bl	1708 <tcv_endp>
        proceed Receiving;
     138:	2000      	movs	r0, #0

}
     13a:	b003      	add	sp, #12
     13c:	f85d eb04 	ldr.w	lr, [sp], #4
        proceed Receiving;
     140:	f000 bfba 	b.w	10b8 <proceed>
        } else if (receivedMessage->receiverId == '0' || receivedMessage->receiverId == 0) {
     144:	2b30      	cmp	r3, #48	; 0x30
     146:	d001      	beq.n	14c <_Min_Stack_Size+0x4c>
     148:	2b00      	cmp	r3, #0
     14a:	d1d9      	bne.n	100 <_Min_Stack_Size>
            proceed From_Broadcast;
     14c:	2003      	movs	r0, #3
     14e:	e7d5      	b.n	fc <receiver+0x34>
}
     150:	b003      	add	sp, #12
     152:	f85d eb04 	ldr.w	lr, [sp], #4
     156:	f000 bf27 	b.w	fa8 <__pi_badstate>
     15a:	bf00      	nop
     15c:	20000000 	andcs	r0, r0, r0
     160:	20000110 	andcs	r0, r0, r0, lsl r1
     164:	20000114 	andcs	r0, r0, r4, lsl r1
     168:	200001fc 	strdcs	r0, [r0], -ip
     16c:	000040b4 	strheq	r4, [r0], -r4	; <UNPREDICTABLE>
     170:	000040bd 	strheq	r4, [r0], -sp
     174:	000040c8 	andeq	r4, r0, r8, asr #1

00000178 <transmitter>:

fsm transmitter (message * messagePtr) {
     178:	b570      	push	{r4, r5, r6, lr}
     17a:	4605      	mov	r5, r0
     17c:	b128      	cbz	r0, 18a <transmitter+0x12>
     17e:	2801      	cmp	r0, #1
     180:	d021      	beq.n	1c6 <transmitter+0x4e>
        sequence++;

    state Confirm_Transmission:
        ser_outf(Transmit_Message, "Message Sent\n\r");
        finish;
}
     182:	e8bd 4070 	ldmia.w	sp!, {r4, r5, r6, lr}
     186:	f000 bf0f 	b.w	fa8 <__pi_badstate>
fsm transmitter (message * messagePtr) {
     18a:	4b13      	ldr	r3, [pc, #76]	; (1d8 <transmitter+0x60>)
        spkt = tcv_wnp (Transmit_Message, sfd, sizeof(message) + 4);
     18c:	4913      	ldr	r1, [pc, #76]	; (1dc <transmitter+0x64>)
fsm transmitter (message * messagePtr) {
     18e:	681b      	ldr	r3, [r3, #0]
        spkt = tcv_wnp (Transmit_Message, sfd, sizeof(message) + 4);
     190:	2222      	movs	r2, #34	; 0x22
fsm transmitter (message * messagePtr) {
     192:	689e      	ldr	r6, [r3, #8]
        spkt = tcv_wnp (Transmit_Message, sfd, sizeof(message) + 4);
     194:	6809      	ldr	r1, [r1, #0]
     196:	4603      	mov	r3, r0
     198:	f001 fba0 	bl	18dc <tcv_wnps>
     19c:	4604      	mov	r4, r0
        spkt [0] = 0;
     19e:	8005      	strh	r5, [r0, #0]
        *p = messagePtr->senderId; p++;
     1a0:	7833      	ldrb	r3, [r6, #0]
        strcpy(p, messagePtr->payload);
     1a2:	1cf1      	adds	r1, r6, #3
        *p = messagePtr->senderId; p++;
     1a4:	7083      	strb	r3, [r0, #2]
        *p = messagePtr->receiverId; p++;
     1a6:	7873      	ldrb	r3, [r6, #1]
        strcpy(p, messagePtr->payload);
     1a8:	3005      	adds	r0, #5
        *p = messagePtr->receiverId; p++;
     1aa:	f800 3c02 	strb.w	r3, [r0, #-2]
        *p = messagePtr->sequenceNumber; p++;
     1ae:	78b3      	ldrb	r3, [r6, #2]
     1b0:	f800 3c01 	strb.w	r3, [r0, #-1]
        strcpy(p, messagePtr->payload);
     1b4:	f001 f805 	bl	11c2 <__pi_strcpy>
        tcv_endp (spkt);
     1b8:	4620      	mov	r0, r4
     1ba:	f001 faa5 	bl	1708 <tcv_endp>
        sequence++;
     1be:	4a08      	ldr	r2, [pc, #32]	; (1e0 <transmitter+0x68>)
     1c0:	7813      	ldrb	r3, [r2, #0]
     1c2:	3301      	adds	r3, #1
     1c4:	7013      	strb	r3, [r2, #0]
        ser_outf(Transmit_Message, "Message Sent\n\r");
     1c6:	2000      	movs	r0, #0
     1c8:	4906      	ldr	r1, [pc, #24]	; (1e4 <transmitter+0x6c>)
     1ca:	f001 fe41 	bl	1e50 <ser_outf>
}
     1ce:	e8bd 4070 	ldmia.w	sp!, {r4, r5, r6, lr}
        finish;
     1d2:	2000      	movs	r0, #0
     1d4:	f001 b8ba 	b.w	134c <kill>
     1d8:	20000230 	andcs	r0, r0, r0, lsr r2
     1dc:	20000000 	andcs	r0, r0, r0
     1e0:	200001fd 	strdcs	r0, [r0], -sp
     1e4:	000040e4 	andeq	r4, r0, r4, ror #1

000001e8 <root>:
    }

    return YES;
}

fsm root {
     1e8:	b537      	push	{r0, r1, r2, r4, r5, lr}
     1ea:	280a      	cmp	r0, #10
     1ec:	f200 80ab 	bhi.w	346 <root+0x15e>
     1f0:	e8df f000 	tbb	[pc, r0]
     1f4:	3e3a3106 	rsfcce	f3, f2, f6
     1f8:	726e5e5a 	rsbvc	r5, lr, #1440	; 0x5a0
     1fc:	0093837f 	addseq	r8, r3, pc, ror r3
"(D)irect transmission\n\r"
"(B)roadcast transmission\n\r"
"Selection: ";

    state Initialize:
        nodeId = 1;
     200:	2201      	movs	r2, #1
        sequence = 0;
     202:	2400      	movs	r4, #0
        nodeId = 1;
     204:	4b52      	ldr	r3, [pc, #328]	; (350 <root+0x168>)

        messagePtr = (message *) umalloc(sizeof(message));
     206:	201e      	movs	r0, #30
        nodeId = 1;
     208:	701a      	strb	r2, [r3, #0]
        sequence = 0;
     20a:	4b52      	ldr	r3, [pc, #328]	; (354 <root+0x16c>)

        phys_cc1350(0, MAX_PACKET_LENGTH);

        tcv_plug(0, &plug_null);
        sfd = tcv_open(WNONE, 0, 0);
     20c:	4d52      	ldr	r5, [pc, #328]	; (358 <root+0x170>)
        sequence = 0;
     20e:	701c      	strb	r4, [r3, #0]
        messagePtr = (message *) umalloc(sizeof(message));
     210:	f001 f8c4 	bl	139c <__pi_malloc>
     214:	4b51      	ldr	r3, [pc, #324]	; (35c <root+0x174>)
        phys_cc1350(0, MAX_PACKET_LENGTH);
     216:	21fa      	movs	r1, #250	; 0xfa
        messagePtr = (message *) umalloc(sizeof(message));
     218:	6018      	str	r0, [r3, #0]
        phys_cc1350(0, MAX_PACKET_LENGTH);
     21a:	4620      	mov	r0, r4
     21c:	f002 fa22 	bl	2664 <phys_cc1350>
        tcv_plug(0, &plug_null);
     220:	494f      	ldr	r1, [pc, #316]	; (360 <root+0x178>)
     222:	4620      	mov	r0, r4
     224:	f001 fb08 	bl	1838 <tcv_plug>
        sfd = tcv_open(WNONE, 0, 0);
     228:	4622      	mov	r2, r4
     22a:	4621      	mov	r1, r4
     22c:	f64f 70ff 	movw	r0, #65535	; 0xffff
     230:	f001 faa2 	bl	1778 <tcv_open>
		tcv_control(sfd, PHYSOPT_ON, NULL);
     234:	4622      	mov	r2, r4
     236:	2104      	movs	r1, #4
        sfd = tcv_open(WNONE, 0, 0);
     238:	6028      	str	r0, [r5, #0]
		tcv_control(sfd, PHYSOPT_ON, NULL);
     23a:	f001 fbc3 	bl	19c4 <tcv_control>

		if (sfd < 0) {
     23e:	682b      	ldr	r3, [r5, #0]
     240:	42a3      	cmp	r3, r4
     242:	da04      	bge.n	24e <root+0x66>
			diag("Cannot open tcv interface");
     244:	4847      	ldr	r0, [pc, #284]	; (364 <root+0x17c>)
     246:	f001 f923 	bl	1490 <diag>
			halt();
     24a:	f000 fdfb 	bl	e44 <halt>
		}

        runfsm receiver;
     24e:	4621      	mov	r1, r4
     250:	4845      	ldr	r0, [pc, #276]	; (368 <root+0x180>)
     252:	f001 f8f7 	bl	1444 <__pi_fork>

    state Menu_Start:
        receiverId = 0;
     256:	2200      	movs	r2, #0
     258:	4b44      	ldr	r3, [pc, #272]	; (36c <root+0x184>)
        ser_outf(Menu_Start, "P2P Chat (Node #%d)\n\r", nodeId);
     25a:	2001      	movs	r0, #1
        receiverId = 0;
     25c:	701a      	strb	r2, [r3, #0]
        ser_outf(Menu_Start, "P2P Chat (Node #%d)\n\r", nodeId);
     25e:	4b3c      	ldr	r3, [pc, #240]	; (350 <root+0x168>)
     260:	4943      	ldr	r1, [pc, #268]	; (370 <root+0x188>)
     262:	781a      	ldrb	r2, [r3, #0]
     264:	f001 fdf4 	bl	1e50 <ser_outf>
    
    state Menu_Choices:
        ser_outf(Menu_Choices, menuText);
     268:	2002      	movs	r0, #2
     26a:	4942      	ldr	r1, [pc, #264]	; (374 <root+0x18c>)
     26c:	f001 fdf0 	bl	1e50 <ser_outf>

    state Choice:
        char choice;

        ser_inf(Choice, "%c", &choice);
     270:	2003      	movs	r0, #3
     272:	4941      	ldr	r1, [pc, #260]	; (378 <root+0x190>)
     274:	f10d 0207 	add.w	r2, sp, #7
     278:	f001 fe14 	bl	1ea4 <ser_inf>
    
        switch (choice)
     27c:	f89d 3007 	ldrb.w	r3, [sp, #7]
     280:	2b62      	cmp	r3, #98	; 0x62
     282:	d05e      	beq.n	342 <root+0x15a>
     284:	d807      	bhi.n	296 <root+0xae>
     286:	2b43      	cmp	r3, #67	; 0x43
     288:	d00b      	beq.n	2a2 <root+0xba>
     28a:	2b44      	cmp	r3, #68	; 0x44
     28c:	d007      	beq.n	29e <root+0xb6>
     28e:	2b42      	cmp	r3, #66	; 0x42
     290:	d057      	beq.n	342 <root+0x15a>
            case 'b':
                proceed Broadcast_Transmission;
                break;

            default:
                proceed Menu_Start;
     292:	2001      	movs	r0, #1
     294:	e006      	b.n	2a4 <root+0xbc>
     296:	2b63      	cmp	r3, #99	; 0x63
     298:	d003      	beq.n	2a2 <root+0xba>
     29a:	2b64      	cmp	r3, #100	; 0x64
     29c:	d1f9      	bne.n	292 <root+0xaa>
                proceed Direct_Transmission;
     29e:	2006      	movs	r0, #6
     2a0:	e000      	b.n	2a4 <root+0xbc>
                proceed Change_ID;
     2a2:	2004      	movs	r0, #4
                proceed Menu_Start;
     2a4:	f000 ff08 	bl	10b8 <proceed>
                break;
        }
    
    state Change_ID:
        ser_outf(Change_ID, "New node ID (1-25):");
     2a8:	2004      	movs	r0, #4
     2aa:	4934      	ldr	r1, [pc, #208]	; (37c <root+0x194>)
     2ac:	f001 fdd0 	bl	1e50 <ser_outf>
    
    state Get_New_ID:
        ser_inf(Get_New_ID, "%d", &nodeId);
     2b0:	4c27      	ldr	r4, [pc, #156]	; (350 <root+0x168>)
     2b2:	2005      	movs	r0, #5
     2b4:	4622      	mov	r2, r4
     2b6:	4932      	ldr	r1, [pc, #200]	; (380 <root+0x198>)
     2b8:	f001 fdf4 	bl	1ea4 <ser_inf>
    if (node < 1 || node > 25) {
     2bc:	7823      	ldrb	r3, [r4, #0]
     2be:	3b01      	subs	r3, #1
     2c0:	2b18      	cmp	r3, #24
     2c2:	d902      	bls.n	2ca <root+0xe2>

        if (!isValidNodeId(nodeId)) {
            proceed Change_ID;
     2c4:	2004      	movs	r0, #4
     2c6:	f000 fef7 	bl	10b8 <proceed>
        }

        proceed Menu_Start;
     2ca:	2001      	movs	r0, #1
     2cc:	f000 fef4 	bl	10b8 <proceed>
    
    state Direct_Transmission:
        ser_outf(Direct_Transmission, "Receiver node ID (1-25):");
     2d0:	2006      	movs	r0, #6
     2d2:	492c      	ldr	r1, [pc, #176]	; (384 <root+0x19c>)
     2d4:	f001 fdbc 	bl	1e50 <ser_outf>
    
    state Get_Receiver_Node:
        ser_inf(Get_Receiver_Node, "%d", &receiverId);
     2d8:	4c24      	ldr	r4, [pc, #144]	; (36c <root+0x184>)
     2da:	2007      	movs	r0, #7
     2dc:	4622      	mov	r2, r4
     2de:	4928      	ldr	r1, [pc, #160]	; (380 <root+0x198>)
     2e0:	f001 fde0 	bl	1ea4 <ser_inf>
    if (node < 1 || node > 25) {
     2e4:	7823      	ldrb	r3, [r4, #0]
     2e6:	3b01      	subs	r3, #1
     2e8:	2b18      	cmp	r3, #24
     2ea:	d902      	bls.n	2f2 <root+0x10a>

        if(!isValidNodeId(receiverId)) {
            proceed Direct_Transmission;
     2ec:	2006      	movs	r0, #6
     2ee:	f000 fee3 	bl	10b8 <proceed>
        }

    state Broadcast_Transmission:
        ser_outf(Broadcast_Transmission, "Message: ");
     2f2:	2008      	movs	r0, #8
     2f4:	4924      	ldr	r1, [pc, #144]	; (388 <root+0x1a0>)
     2f6:	f001 fdab 	bl	1e50 <ser_outf>
    
    state Get_Message:
        //byte mes[PAYLOAD_LENGTH];

        ser_in(Get_Message, messagePtr->payload, PAYLOAD_LENGTH);
     2fa:	4c18      	ldr	r4, [pc, #96]	; (35c <root+0x174>)
     2fc:	221b      	movs	r2, #27
     2fe:	6821      	ldr	r1, [r4, #0]
     300:	2009      	movs	r0, #9
     302:	3103      	adds	r1, #3
     304:	f001 fd68 	bl	1dd8 <ser_in>

        if(strlen(messagePtr->payload) > PAYLOAD_LENGTH) {
     308:	6820      	ldr	r0, [r4, #0]
     30a:	3003      	adds	r0, #3
     30c:	f000 ff52 	bl	11b4 <__pi_strlen>
     310:	281b      	cmp	r0, #27
            messagePtr->payload[PAYLOAD_LENGTH - 1] = '/0';
     312:	bfc2      	ittt	gt
     314:	2230      	movgt	r2, #48	; 0x30
     316:	6823      	ldrgt	r3, [r4, #0]
     318:	775a      	strbgt	r2, [r3, #29]
        }

    state Transmit:
        messagePtr->senderId = nodeId;
     31a:	4b10      	ldr	r3, [pc, #64]	; (35c <root+0x174>)
        messagePtr->receiverId = receiverId;
        messagePtr->sequenceNumber = sequence;

        call transmitter(messagePtr, Menu_Start);
     31c:	481b      	ldr	r0, [pc, #108]	; (38c <root+0x1a4>)
        messagePtr->senderId = nodeId;
     31e:	6819      	ldr	r1, [r3, #0]
     320:	4b0b      	ldr	r3, [pc, #44]	; (350 <root+0x168>)
     322:	781b      	ldrb	r3, [r3, #0]
     324:	700b      	strb	r3, [r1, #0]
        messagePtr->receiverId = receiverId;
     326:	4b11      	ldr	r3, [pc, #68]	; (36c <root+0x184>)
     328:	781b      	ldrb	r3, [r3, #0]
     32a:	704b      	strb	r3, [r1, #1]
        messagePtr->sequenceNumber = sequence;
     32c:	4b09      	ldr	r3, [pc, #36]	; (354 <root+0x16c>)
     32e:	781b      	ldrb	r3, [r3, #0]
     330:	708b      	strb	r3, [r1, #2]
        call transmitter(messagePtr, Menu_Start);
     332:	f001 f887 	bl	1444 <__pi_fork>
     336:	2101      	movs	r1, #1
     338:	f000 fefc 	bl	1134 <__pi_join>
     33c:	b128      	cbz	r0, 34a <root+0x162>
     33e:	f000 fc55 	bl	bec <__pi_release>
                proceed Broadcast_Transmission;
     342:	2008      	movs	r0, #8
     344:	e7ae      	b.n	2a4 <root+0xbc>
     346:	f000 fe2f 	bl	fa8 <__pi_badstate>
     34a:	b003      	add	sp, #12
     34c:	bd30      	pop	{r4, r5, pc}
     34e:	bf00      	nop
     350:	200001fc 	strdcs	r0, [r0], -ip
     354:	200001fd 	strdcs	r0, [r0], -sp
     358:	20000000 	andcs	r0, r0, r0
     35c:	2000010c 	andcs	r0, r0, ip, lsl #2
     360:	00004d34 	andeq	r4, r0, r4, lsr sp
     364:	000040f3 	strdeq	r4, [r0], -r3
     368:	000000c9 	andeq	r0, r0, r9, asr #1
     36c:	20000118 	andcs	r0, r0, r8, lsl r1
     370:	0000410d 	andeq	r4, r0, sp, lsl #2
     374:	00004123 	andeq	r4, r0, r3, lsr #2
     378:	00004172 	andeq	r4, r0, r2, ror r1
     37c:	00004175 	andeq	r4, r0, r5, ror r1
     380:	000043bb 			; <UNDEFINED> instruction: 0x000043bb
     384:	00004189 	andeq	r4, r0, r9, lsl #3
     388:	000041a2 	andeq	r4, r0, r2, lsr #3
     38c:	00000179 	andeq	r0, r0, r9, ror r1

00000390 <devinit_uart>:
			/* No return */
			return 0;
	}
}

static void devinit_uart (int devnum) {
     390:	4601      	mov	r1, r0

	adddevfunc (ioreq_uart_a, devnum);
     392:	4801      	ldr	r0, [pc, #4]	; (398 <devinit_uart+0x8>)
     394:	f000 bf2e 	b.w	11f4 <adddevfunc>
     398:	0000071d 	andeq	r0, r0, sp, lsl r7

0000039c <udelay>:
void udelay (volatile word n) {
     39c:	b082      	sub	sp, #8
     39e:	f8ad 0006 	strh.w	r0, [sp, #6]
	while (n) {
     3a2:	f8bd 3006 	ldrh.w	r3, [sp, #6]
     3a6:	b29b      	uxth	r3, r3
     3a8:	b90b      	cbnz	r3, 3ae <udelay+0x12>
}
     3aa:	b002      	add	sp, #8
     3ac:	4770      	bx	lr
		_gdelay (__USEC_DELAY);
     3ae:	2304      	movs	r3, #4
	while (n--);
     3b0:	461a      	mov	r2, r3
     3b2:	3b01      	subs	r3, #1
     3b4:	b29b      	uxth	r3, r3
     3b6:	2a00      	cmp	r2, #0
     3b8:	d1fa      	bne.n	3b0 <udelay+0x14>
		n--;
     3ba:	f8bd 3006 	ldrh.w	r3, [sp, #6]
     3be:	3b01      	subs	r3, #1
     3c0:	b29b      	uxth	r3, r3
     3c2:	f8ad 3006 	strh.w	r3, [sp, #6]
     3c6:	e7ec      	b.n	3a2 <udelay+0x6>

000003c8 <mdelay>:
void mdelay (volatile word n) {
     3c8:	b507      	push	{r0, r1, r2, lr}
     3ca:	f8ad 0006 	strh.w	r0, [sp, #6]
	while (n) {
     3ce:	f8bd 3006 	ldrh.w	r3, [sp, #6]
     3d2:	b29b      	uxth	r3, r3
     3d4:	b913      	cbnz	r3, 3dc <mdelay+0x14>
}
     3d6:	b003      	add	sp, #12
     3d8:	f85d fb04 	ldr.w	pc, [sp], #4
		udelay (999);
     3dc:	f240 30e7 	movw	r0, #999	; 0x3e7
     3e0:	f7ff ffdc 	bl	39c <udelay>
		n--;
     3e4:	f8bd 3006 	ldrh.w	r3, [sp, #6]
     3e8:	3b01      	subs	r3, #1
     3ea:	b29b      	uxth	r3, r3
     3ec:	f8ad 3006 	strh.w	r3, [sp, #6]
     3f0:	e7ed      	b.n	3ce <mdelay+0x6>
	...

000003f4 <__pi_ondomain>:
void __pi_ondomain (lword d) {
     3f4:	b538      	push	{r3, r4, r5, lr}
	if (d & PRCM_DOMAIN_RFCORE) {
     3f6:	07c3      	lsls	r3, r0, #31
void __pi_ondomain (lword d) {
     3f8:	4604      	mov	r4, r0
	if (d & PRCM_DOMAIN_RFCORE) {
     3fa:	d505      	bpl.n	408 <__pi_ondomain+0x14>
		if (__pi_systat.effpdm > 1)
     3fc:	4b0a      	ldr	r3, [pc, #40]	; (428 <__pi_ondomain+0x34>)
     3fe:	78da      	ldrb	r2, [r3, #3]
     400:	2a01      	cmp	r2, #1
			__pi_systat.effpdm = 1;
     402:	bf84      	itt	hi
     404:	2201      	movhi	r2, #1
     406:	70da      	strbhi	r2, [r3, #3]
	PRCMPowerDomainOn (d);
     408:	4d08      	ldr	r5, [pc, #32]	; (42c <__pi_ondomain+0x38>)
     40a:	4620      	mov	r0, r4
     40c:	682b      	ldr	r3, [r5, #0]
     40e:	695b      	ldr	r3, [r3, #20]
     410:	4798      	blx	r3
	while (PRCMPowerDomainStatus (d) != PRCM_DOMAIN_POWER_ON);
     412:	682b      	ldr	r3, [r5, #0]
     414:	4620      	mov	r0, r4
     416:	6b5b      	ldr	r3, [r3, #52]	; 0x34
     418:	4798      	blx	r3
     41a:	2801      	cmp	r0, #1
     41c:	d1f9      	bne.n	412 <__pi_ondomain+0x1e>
	__pi_systat.ondmns |= d;
     41e:	4b02      	ldr	r3, [pc, #8]	; (428 <__pi_ondomain+0x34>)
     420:	6858      	ldr	r0, [r3, #4]
     422:	4304      	orrs	r4, r0
     424:	605c      	str	r4, [r3, #4]
}
     426:	bd38      	pop	{r3, r4, r5, pc}
     428:	20000214 	andcs	r0, r0, r4, lsl r2
     42c:	100001b8 			; <UNDEFINED> instruction: 0x100001b8

00000430 <__pi_offdomain>:
void __pi_offdomain (lword d) {
     430:	b538      	push	{r3, r4, r5, lr}
	PRCMPowerDomainOff (d);
     432:	4d0d      	ldr	r5, [pc, #52]	; (468 <__pi_offdomain+0x38>)
void __pi_offdomain (lword d) {
     434:	4604      	mov	r4, r0
	PRCMPowerDomainOff (d);
     436:	682b      	ldr	r3, [r5, #0]
     438:	699b      	ldr	r3, [r3, #24]
     43a:	4798      	blx	r3
	while (PRCMPowerDomainStatus (d) != PRCM_DOMAIN_POWER_OFF);
     43c:	682b      	ldr	r3, [r5, #0]
     43e:	4620      	mov	r0, r4
     440:	6b5b      	ldr	r3, [r3, #52]	; 0x34
     442:	4798      	blx	r3
     444:	2802      	cmp	r0, #2
     446:	d1f9      	bne.n	43c <__pi_offdomain+0xc>
	if (d & PRCM_DOMAIN_RFCORE) {
     448:	f014 0f01 	tst.w	r4, #1
     44c:	4b07      	ldr	r3, [pc, #28]	; (46c <__pi_offdomain+0x3c>)
     44e:	d006      	beq.n	45e <__pi_offdomain+0x2e>
		if (__pi_systat.reqpdm > __pi_systat.effpdm)
     450:	7899      	ldrb	r1, [r3, #2]
     452:	78da      	ldrb	r2, [r3, #3]
     454:	4291      	cmp	r1, r2
			__pi_systat.effpdm = __pi_systat.reqpdm;
     456:	bf82      	ittt	hi
     458:	789a      	ldrbhi	r2, [r3, #2]
     45a:	b2d2      	uxtbhi	r2, r2
     45c:	70da      	strbhi	r2, [r3, #3]
	__pi_systat.ondmns &= ~d;
     45e:	6858      	ldr	r0, [r3, #4]
     460:	ea20 0404 	bic.w	r4, r0, r4
     464:	605c      	str	r4, [r3, #4]
}
     466:	bd38      	pop	{r3, r4, r5, pc}
     468:	100001b8 			; <UNDEFINED> instruction: 0x100001b8
     46c:	20000214 	andcs	r0, r0, r4, lsl r2

00000470 <__pi_syserror>:
void __pi_syserror (word ec, const char *m) {
     470:	460a      	mov	r2, r1
     472:	b580      	push	{r7, lr}
	diag ("SYSERR: %x, %s", ec, m);
     474:	4601      	mov	r1, r0
     476:	480f      	ldr	r0, [pc, #60]	; (4b4 <__pi_syserror+0x44>)
     478:	f001 f80a 	bl	1490 <diag>
  \details Disables IRQ interrupts by setting the I-bit in the CPSR.
           Can only be executed in Privileged modes.
 */
__attribute__((always_inline)) __STATIC_INLINE void __disable_irq(void)
{
  __ASM volatile ("cpsid i" : : : "memory");
     47c:	b672      	cpsid	i
    ASSERT( dioNumberLegal( dioNumber ));

    //
    // Set the specified DIO.
    //
    HWREG( GPIO_BASE + GPIO_O_DOUTSET31_0 ) = ( 1 << dioNumber );
     47e:	2540      	movs	r5, #64	; 0x40
     480:	462f      	mov	r7, r5
     482:	4e0d      	ldr	r6, [pc, #52]	; (4b8 <__pi_syserror+0x48>)
     484:	2480      	movs	r4, #128	; 0x80
		all_leds_blink;
     486:	490d      	ldr	r1, [pc, #52]	; (4bc <__pi_syserror+0x4c>)
     488:	6037      	str	r7, [r6, #0]
     48a:	6034      	str	r4, [r6, #0]
     48c:	780b      	ldrb	r3, [r1, #0]
     48e:	780b      	ldrb	r3, [r1, #0]
     490:	20c8      	movs	r0, #200	; 0xc8
     492:	f36f 1307 	bfc	r3, #4, #4
     496:	700b      	strb	r3, [r1, #0]
     498:	f7ff ff96 	bl	3c8 <mdelay>
    ASSERT( dioNumberLegal( dioNumber ));

    //
    // Clear the specified DIO.
    //
    HWREG( GPIO_BASE + GPIO_O_DOUTCLR31_0 ) = ( 1 << dioNumber );
     49c:	4b08      	ldr	r3, [pc, #32]	; (4c0 <__pi_syserror+0x50>)
     49e:	20c8      	movs	r0, #200	; 0xc8
     4a0:	601d      	str	r5, [r3, #0]
     4a2:	601c      	str	r4, [r3, #0]
     4a4:	780b      	ldrb	r3, [r1, #0]
     4a6:	780b      	ldrb	r3, [r1, #0]
     4a8:	f36f 1307 	bfc	r3, #4, #4
     4ac:	700b      	strb	r3, [r1, #0]
     4ae:	f7ff ff8b 	bl	3c8 <mdelay>
	while (1) {
     4b2:	e7e7      	b.n	484 <__pi_syserror+0x14>
     4b4:	000041ac 	andeq	r4, r0, ip, lsr #3
     4b8:	40022090 	mulmi	r2, r0, r0
     4bc:	20000214 	andcs	r0, r0, r4, lsl r2
     4c0:	400220a0 	andmi	r2, r2, r0, lsr #1

000004c4 <tci_run_delay_timer>:
void tci_run_delay_timer () {
     4c4:	b510      	push	{r4, lr}
	setdel = __pi_mintk - __pi_old;
     4c6:	4b0a      	ldr	r3, [pc, #40]	; (4f0 <tci_run_delay_timer+0x2c>)
     4c8:	881c      	ldrh	r4, [r3, #0]
     4ca:	4b0a      	ldr	r3, [pc, #40]	; (4f4 <tci_run_delay_timer+0x30>)
     4cc:	8818      	ldrh	r0, [r3, #0]
     4ce:	4b0a      	ldr	r3, [pc, #40]	; (4f8 <tci_run_delay_timer+0x34>)
     4d0:	1b00      	subs	r0, r0, r4
     4d2:	b284      	uxth	r4, r0
     4d4:	801c      	strh	r4, [r3, #0]
	return (lword)(AONRTCCurrent64BitValueGet () >> 16) + TCI_TINCR (del);
     4d6:	f002 fde9 	bl	30ac <NOROM_AONRTCCurrent64BitValueGet>
	sti_tim;
     4da:	2201      	movs	r2, #1
	return (lword)(AONRTCCurrent64BitValueGet () >> 16) + TCI_TINCR (del);
     4dc:	0c00      	lsrs	r0, r0, #16
	HWREG (AON_RTC_BASE + AON_RTC_O_CH0CMP) = settav (setdel);
     4de:	4b07      	ldr	r3, [pc, #28]	; (4fc <tci_run_delay_timer+0x38>)
	return (lword)(AONRTCCurrent64BitValueGet () >> 16) + TCI_TINCR (del);
     4e0:	ea40 4001 	orr.w	r0, r0, r1, lsl #16
     4e4:	eb00 1084 	add.w	r0, r0, r4, lsl #6
	HWREG (AON_RTC_BASE + AON_RTC_O_CH0CMP) = settav (setdel);
     4e8:	6018      	str	r0, [r3, #0]
	sti_tim;
     4ea:	4b05      	ldr	r3, [pc, #20]	; (500 <tci_run_delay_timer+0x3c>)
     4ec:	601a      	str	r2, [r3, #0]
}
     4ee:	bd10      	pop	{r4, pc}
     4f0:	20000212 	andcs	r0, r0, r2, lsl r2
     4f4:	20000210 	andcs	r0, r0, r0, lsl r2
     4f8:	2000011a 	andcs	r0, r0, sl, lsl r1
     4fc:	40092018 	andmi	r2, r9, r8, lsl r0
     500:	43240280 			; <UNDEFINED> instruction: 0x43240280

00000504 <tci_run_auxiliary_timer>:
	cli_aux;
     504:	2300      	movs	r3, #0
void tci_run_auxiliary_timer () {
     506:	b510      	push	{r4, lr}
	cli_aux;
     508:	4c06      	ldr	r4, [pc, #24]	; (524 <tci_run_auxiliary_timer+0x20>)
     50a:	6023      	str	r3, [r4, #0]
	return (lword)(AONRTCCurrent64BitValueGet () >> 16) + TCI_TINCR (del);
     50c:	f002 fdce 	bl	30ac <NOROM_AONRTCCurrent64BitValueGet>
     510:	0c00      	lsrs	r0, r0, #16
	HWREG (AON_RTC_BASE + AON_RTC_O_CH2CMP) = settav (1);
     512:	4b05      	ldr	r3, [pc, #20]	; (528 <tci_run_auxiliary_timer+0x24>)
	return (lword)(AONRTCCurrent64BitValueGet () >> 16) + TCI_TINCR (del);
     514:	ea40 4001 	orr.w	r0, r0, r1, lsl #16
     518:	3040      	adds	r0, #64	; 0x40
	HWREG (AON_RTC_BASE + AON_RTC_O_CH2CMP) = settav (1);
     51a:	6018      	str	r0, [r3, #0]
	sti_aux;
     51c:	2301      	movs	r3, #1
     51e:	6023      	str	r3, [r4, #0]
}
     520:	bd10      	pop	{r4, pc}
     522:	bf00      	nop
     524:	432402c0 			; <UNDEFINED> instruction: 0x432402c0
     528:	40092020 	andmi	r2, r9, r0, lsr #32

0000052c <AONRTCIntHandler>:
void AONRTCIntHandler () {
     52c:	b510      	push	{r4, lr}
	events = HWREG (AON_RTC_BASE + AON_RTC_O_EVFLAGS) & 
     52e:	4b3b      	ldr	r3, [pc, #236]	; (61c <AONRTCIntHandler+0xf0>)
     530:	6818      	ldr	r0, [r3, #0]
     532:	f000 1201 	and.w	r2, r0, #65537	; 0x10001
	if (events & AON_RTC_EVFLAGS_CH2) {
     536:	03c4      	lsls	r4, r0, #15
	HWREG (AON_RTC_BASE + AON_RTC_O_EVFLAGS) = events;
     538:	601a      	str	r2, [r3, #0]
	if (events & AON_RTC_EVFLAGS_CH2) {
     53a:	d542      	bpl.n	5c2 <AONRTCIntHandler+0x96>
		if (__pi_utims [0] == 0)
     53c:	4b38      	ldr	r3, [pc, #224]	; (620 <AONRTCIntHandler+0xf4>)
     53e:	6819      	ldr	r1, [r3, #0]
     540:	2900      	cmp	r1, #0
     542:	d053      	beq.n	5ec <AONRTCIntHandler+0xc0>
		if (*(__pi_utims [0])) {
     544:	880a      	ldrh	r2, [r1, #0]
     546:	2a00      	cmp	r2, #0
     548:	d04e      	beq.n	5e8 <AONRTCIntHandler+0xbc>
			(*(__pi_utims [0]))--;
     54a:	3a01      	subs	r2, #1
     54c:	800a      	strh	r2, [r1, #0]
			aux_timer_inactive = 0;
     54e:	2200      	movs	r2, #0
		if (__pi_utims [1] == 0)
     550:	685c      	ldr	r4, [r3, #4]
     552:	b194      	cbz	r4, 57a <AONRTCIntHandler+0x4e>
		if (*(__pi_utims [1])) {
     554:	8821      	ldrh	r1, [r4, #0]
     556:	b111      	cbz	r1, 55e <AONRTCIntHandler+0x32>
			aux_timer_inactive = 0;
     558:	2200      	movs	r2, #0
			(*(__pi_utims [1]))--;
     55a:	3901      	subs	r1, #1
     55c:	8021      	strh	r1, [r4, #0]
		if (__pi_utims [2] == 0)
     55e:	689c      	ldr	r4, [r3, #8]
     560:	b15c      	cbz	r4, 57a <AONRTCIntHandler+0x4e>
		if (*(__pi_utims [2])) {
     562:	8821      	ldrh	r1, [r4, #0]
     564:	b111      	cbz	r1, 56c <AONRTCIntHandler+0x40>
			aux_timer_inactive = 0;
     566:	2200      	movs	r2, #0
			(*(__pi_utims [2]))--;
     568:	3901      	subs	r1, #1
     56a:	8021      	strh	r1, [r4, #0]
		if (__pi_utims [3] != 0) {
     56c:	68d9      	ldr	r1, [r3, #12]
     56e:	b121      	cbz	r1, 57a <AONRTCIntHandler+0x4e>
			if (*(__pi_utims [3])) {
     570:	880b      	ldrh	r3, [r1, #0]
     572:	b113      	cbz	r3, 57a <AONRTCIntHandler+0x4e>
				aux_timer_inactive = 0;
     574:	2200      	movs	r2, #0
				(*(__pi_utims [3]))--;
     576:	3b01      	subs	r3, #1
     578:	800b      	strh	r3, [r1, #0]
/* ==================================================================== */
/* Copyright (C) Olsonet Communications, 2002 - 2006                    */
/* All rights reserved.                                                 */
/* ==================================================================== */

	if (__pi_systat.ledsts) {
     57a:	4b2a      	ldr	r3, [pc, #168]	; (624 <AONRTCIntHandler+0xf8>)
     57c:	7819      	ldrb	r1, [r3, #0]
     57e:	0909      	lsrs	r1, r1, #4
     580:	d047      	beq.n	612 <AONRTCIntHandler+0xe6>
		// Some leds are supposed to blink
		if (__pi_systat.ledblc++ == 0) {
     582:	7859      	ldrb	r1, [r3, #1]
     584:	1c4a      	adds	r2, r1, #1
     586:	b2d2      	uxtb	r2, r2
     588:	705a      	strb	r2, [r3, #1]
     58a:	b9d1      	cbnz	r1, 5c2 <AONRTCIntHandler+0x96>
			if (__pi_systat.ledblk) {
     58c:	781a      	ldrb	r2, [r3, #0]
     58e:	f012 0f08 	tst.w	r2, #8
				if (__pi_systat.ledsts & 0x1)
     592:	781a      	ldrb	r2, [r3, #0]
			if (__pi_systat.ledblk) {
     594:	d02c      	beq.n	5f0 <AONRTCIntHandler+0xc4>
				if (__pi_systat.ledsts & 0x1)
     596:	06d1      	lsls	r1, r2, #27
    HWREG( GPIO_BASE + GPIO_O_DOUTSET31_0 ) = ( 1 << dioNumber );
     598:	bf42      	ittt	mi
     59a:	2140      	movmi	r1, #64	; 0x40
     59c:	4a22      	ldrmi	r2, [pc, #136]	; (628 <AONRTCIntHandler+0xfc>)
     59e:	6011      	strmi	r1, [r2, #0]
					LED0_ON;
				if (__pi_systat.ledsts & 0x2)
     5a0:	781a      	ldrb	r2, [r3, #0]
     5a2:	0692      	lsls	r2, r2, #26
     5a4:	bf42      	ittt	mi
     5a6:	2180      	movmi	r1, #128	; 0x80
     5a8:	4a1f      	ldrmi	r2, [pc, #124]	; (628 <AONRTCIntHandler+0xfc>)
     5aa:	6011      	strmi	r1, [r2, #0]
					LED1_ON;
				if (__pi_systat.ledsts & 0x4)
     5ac:	781a      	ldrb	r2, [r3, #0]
					LED2_ON;
				if (__pi_systat.ledsts & 0x8)
     5ae:	781a      	ldrb	r2, [r3, #0]
					LED3_ON;
				__pi_systat.ledblk = 0;
     5b0:	781a      	ldrb	r2, [r3, #0]
     5b2:	f36f 02c3 	bfc	r2, #3, #1
					LED1_OFF;
				if (__pi_systat.ledsts & 0x4)
					LED2_OFF;
				if (__pi_systat.ledsts & 0x8)
					LED3_OFF;
				__pi_systat.ledblk = 1;
     5b6:	701a      	strb	r2, [r3, #0]
			}
			if (__pi_systat.fstblk)
     5b8:	781a      	ldrb	r2, [r3, #0]
     5ba:	0752      	lsls	r2, r2, #29
     5bc:	d501      	bpl.n	5c2 <AONRTCIntHandler+0x96>
				__pi_systat.ledblc = 200;
     5be:	22c8      	movs	r2, #200	; 0xc8
     5c0:	705a      	strb	r2, [r3, #1]
	if (events & AON_RTC_EVFLAGS_CH0) {
     5c2:	07c3      	lsls	r3, r0, #31
     5c4:	d50f      	bpl.n	5e6 <AONRTCIntHandler+0xba>
		cli_tim;
     5c6:	2100      	movs	r1, #0
     5c8:	4b18      	ldr	r3, [pc, #96]	; (62c <AONRTCIntHandler+0x100>)
		__pi_new += setdel;
     5ca:	4a19      	ldr	r2, [pc, #100]	; (630 <AONRTCIntHandler+0x104>)
     5cc:	4819      	ldr	r0, [pc, #100]	; (634 <AONRTCIntHandler+0x108>)
		cli_tim;
     5ce:	6019      	str	r1, [r3, #0]
		__pi_new += setdel;
     5d0:	8803      	ldrh	r3, [r0, #0]
     5d2:	8814      	ldrh	r4, [r2, #0]
		setdel = 0;
     5d4:	8011      	strh	r1, [r2, #0]
		__pi_new += setdel;
     5d6:	4423      	add	r3, r4
		RISE_N_SHINE;
     5d8:	4a12      	ldr	r2, [pc, #72]	; (624 <AONRTCIntHandler+0xf8>)
		__pi_new += setdel;
     5da:	b29b      	uxth	r3, r3
     5dc:	8003      	strh	r3, [r0, #0]
		RISE_N_SHINE;
     5de:	7813      	ldrb	r3, [r2, #0]
     5e0:	f043 0302 	orr.w	r3, r3, #2
     5e4:	7013      	strb	r3, [r2, #0]
}
     5e6:	bd10      	pop	{r4, pc}
		aux_timer_inactive = 1;
     5e8:	2201      	movs	r2, #1
     5ea:	e7b1      	b.n	550 <AONRTCIntHandler+0x24>
     5ec:	2201      	movs	r2, #1
     5ee:	e7c4      	b.n	57a <AONRTCIntHandler+0x4e>
				if (__pi_systat.ledsts & 0x1)
     5f0:	06d4      	lsls	r4, r2, #27
    HWREG( GPIO_BASE + GPIO_O_DOUTCLR31_0 ) = ( 1 << dioNumber );
     5f2:	bf42      	ittt	mi
     5f4:	2140      	movmi	r1, #64	; 0x40
     5f6:	4a10      	ldrmi	r2, [pc, #64]	; (638 <AONRTCIntHandler+0x10c>)
     5f8:	6011      	strmi	r1, [r2, #0]
				if (__pi_systat.ledsts & 0x2)
     5fa:	781a      	ldrb	r2, [r3, #0]
     5fc:	0691      	lsls	r1, r2, #26
     5fe:	bf42      	ittt	mi
     600:	2180      	movmi	r1, #128	; 0x80
     602:	4a0d      	ldrmi	r2, [pc, #52]	; (638 <AONRTCIntHandler+0x10c>)
     604:	6011      	strmi	r1, [r2, #0]
				if (__pi_systat.ledsts & 0x4)
     606:	781a      	ldrb	r2, [r3, #0]
				if (__pi_systat.ledsts & 0x8)
     608:	781a      	ldrb	r2, [r3, #0]
				__pi_systat.ledblk = 1;
     60a:	781a      	ldrb	r2, [r3, #0]
     60c:	f042 0208 	orr.w	r2, r2, #8
     610:	e7d1      	b.n	5b6 <AONRTCIntHandler+0x8a>
		if (aux_timer_inactive) {
     612:	2a00      	cmp	r2, #0
     614:	d0d5      	beq.n	5c2 <AONRTCIntHandler+0x96>
			cli_aux;
     616:	4b09      	ldr	r3, [pc, #36]	; (63c <AONRTCIntHandler+0x110>)
     618:	6019      	str	r1, [r3, #0]
     61a:	e7d2      	b.n	5c2 <AONRTCIntHandler+0x96>
     61c:	40092004 	andmi	r2, r9, r4
     620:	20000220 	andcs	r0, r0, r0, lsr #4
     624:	20000214 	andcs	r0, r0, r4, lsl r2
     628:	40022090 	mulmi	r2, r0, r0
     62c:	43240280 			; <UNDEFINED> instruction: 0x43240280
     630:	2000011a 	andcs	r0, r0, sl, lsl r1
     634:	2000021c 	andcs	r0, r0, ip, lsl r2
     638:	400220a0 	andmi	r2, r2, r0, lsr #1
     63c:	432402c0 			; <UNDEFINED> instruction: 0x432402c0

00000640 <tci_update_delay_ticks>:
word tci_update_delay_ticks (Boolean force) {
     640:	b5f8      	push	{r3, r4, r5, r6, r7, lr}
	cli_tim;
     642:	2600      	movs	r6, #0
     644:	4b0e      	ldr	r3, [pc, #56]	; (680 <tci_update_delay_ticks+0x40>)
	if (setdel) {
     646:	4f0f      	ldr	r7, [pc, #60]	; (684 <tci_update_delay_ticks+0x44>)
	cli_tim;
     648:	601e      	str	r6, [r3, #0]
	if (setdel) {
     64a:	883d      	ldrh	r5, [r7, #0]
     64c:	b19d      	cbz	r5, 676 <tci_update_delay_ticks+0x36>
		if (force) {
     64e:	b1a0      	cbz	r0, 67a <tci_update_delay_ticks+0x3a>
			__pi_new += setdel - (TCI_INCRT (HWREG (AON_RTC_BASE +
     650:	4b0d      	ldr	r3, [pc, #52]	; (688 <tci_update_delay_ticks+0x48>)
     652:	681c      	ldr	r4, [r3, #0]
	return (word)(AONRTCCurrent64BitValueGet () >> (32 - 10));
     654:	f002 fd2a 	bl	30ac <NOROM_AONRTCCurrent64BitValueGet>
     658:	0d80      	lsrs	r0, r0, #22
     65a:	ea40 2081 	orr.w	r0, r0, r1, lsl #10
			__pi_new += setdel - (TCI_INCRT (HWREG (AON_RTC_BASE +
     65e:	f3c4 148f 	ubfx	r4, r4, #6, #16
				AON_RTC_O_CH0CMP)) - gettav ());
     662:	b280      	uxth	r0, r0
     664:	1a24      	subs	r4, r4, r0
			__pi_new += setdel - (TCI_INCRT (HWREG (AON_RTC_BASE +
     666:	1b2c      	subs	r4, r5, r4
	return NO;
     668:	4635      	mov	r5, r6
			__pi_new += setdel - (TCI_INCRT (HWREG (AON_RTC_BASE +
     66a:	4b08      	ldr	r3, [pc, #32]	; (68c <tci_update_delay_ticks+0x4c>)
			setdel = 0;
     66c:	803e      	strh	r6, [r7, #0]
			__pi_new += setdel - (TCI_INCRT (HWREG (AON_RTC_BASE +
     66e:	881a      	ldrh	r2, [r3, #0]
     670:	4414      	add	r4, r2
     672:	b2a4      	uxth	r4, r4
     674:	801c      	strh	r4, [r3, #0]
}
     676:	4628      	mov	r0, r5
     678:	bdf8      	pop	{r3, r4, r5, r6, r7, pc}
		sti_tim;
     67a:	2501      	movs	r5, #1
     67c:	601d      	str	r5, [r3, #0]
		return YES;
     67e:	e7fa      	b.n	676 <tci_update_delay_ticks+0x36>
     680:	43240280 			; <UNDEFINED> instruction: 0x43240280
     684:	2000011a 	andcs	r0, r0, sl, lsl r1
     688:	40092018 	andmi	r2, r9, r8, lsl r0
     68c:	2000021c 	andcs	r0, r0, ip, lsl r2

00000690 <__pi_uart_setrate>:
Boolean __pi_uart_setrate (word rate, uart_t *ua) {
     690:	b570      	push	{r4, r5, r6, lr}
	UARTDisable (UART0_BASE);
     692:	4e0f      	ldr	r6, [pc, #60]	; (6d0 <__pi_uart_setrate+0x40>)
     694:	4d0f      	ldr	r5, [pc, #60]	; (6d4 <__pi_uart_setrate+0x44>)
     696:	6833      	ldr	r3, [r6, #0]
Boolean __pi_uart_setrate (word rate, uart_t *ua) {
     698:	4604      	mov	r4, r0
	UARTDisable (UART0_BASE);
     69a:	68db      	ldr	r3, [r3, #12]
     69c:	4628      	mov	r0, r5
     69e:	4798      	blx	r3
	UARTConfigSetExpClk (UART0_BASE,
     6a0:	2264      	movs	r2, #100	; 0x64
     6a2:	6833      	ldr	r3, [r6, #0]
     6a4:	4628      	mov	r0, r5
     6a6:	4362      	muls	r2, r4
     6a8:	685e      	ldr	r6, [r3, #4]
     6aa:	490b      	ldr	r1, [pc, #44]	; (6d8 <__pi_uart_setrate+0x48>)
     6ac:	2360      	movs	r3, #96	; 0x60
     6ae:	47b0      	blx	r6
    ASSERT(UARTBaseValid(ui32Base));

    //
    // Enable the FIFO.
    //
    HWREG(ui32Base + UART_O_LCRH) |= UART_LCRH_FEN;
     6b0:	4a0a      	ldr	r2, [pc, #40]	; (6dc <__pi_uart_setrate+0x4c>)
}
     6b2:	2001      	movs	r0, #1
     6b4:	6813      	ldr	r3, [r2, #0]
     6b6:	f043 0310 	orr.w	r3, r3, #16
     6ba:	6013      	str	r3, [r2, #0]

    //
    // Enable RX, TX, and the UART.
    //
    HWREG(ui32Base + UART_O_CTL) |= (UART_CTL_UARTEN | UART_CTL_TXE |
     6bc:	6853      	ldr	r3, [r2, #4]
     6be:	f443 7340 	orr.w	r3, r3, #768	; 0x300
     6c2:	f043 0301 	orr.w	r3, r3, #1
     6c6:	6053      	str	r3, [r2, #4]
	urates [0] = rate;
     6c8:	4b05      	ldr	r3, [pc, #20]	; (6e0 <__pi_uart_setrate+0x50>)
     6ca:	801c      	strh	r4, [r3, #0]
}
     6cc:	bd70      	pop	{r4, r5, r6, pc}
     6ce:	bf00      	nop
     6d0:	100001d0 	ldrdne	r0, [r0], -r0	; <UNPREDICTABLE>
     6d4:	40001000 	andmi	r1, r0, r0
     6d8:	02dc6c00 	sbcseq	r6, ip, #0, 24
     6dc:	4000102c 	andmi	r1, r0, ip, lsr #32
     6e0:	2000011c 	andcs	r0, r0, ip, lsl r1

000006e4 <reinit_uart>:
    ASSERT(UARTBaseValid(ui32Base));

    //
    // Enable the FIFO.
    //
    HWREG(ui32Base + UART_O_LCRH) |= UART_LCRH_FEN;
     6e4:	4a08      	ldr	r2, [pc, #32]	; (708 <reinit_uart+0x24>)
	__pi_uart_setrate (urates [0], __pi_uart);
     6e6:	4909      	ldr	r1, [pc, #36]	; (70c <reinit_uart+0x28>)
     6e8:	6813      	ldr	r3, [r2, #0]
     6ea:	f043 0310 	orr.w	r3, r3, #16
     6ee:	6013      	str	r3, [r2, #0]
    HWREG(ui32Base + UART_O_IFLS) = ui32TxLevel | ui32RxLevel;
     6f0:	2212      	movs	r2, #18
     6f2:	4b07      	ldr	r3, [pc, #28]	; (710 <reinit_uart+0x2c>)
     6f4:	601a      	str	r2, [r3, #0]
    //
    // Check the arguments.
    //
    ASSERT( UARTBaseValid( ui32Base ));

    HWREG( ui32Base + UART_O_CTL ) &= ~( UART_CTL_CTSEN | UART_CTL_RTSEN );
     6f6:	4a07      	ldr	r2, [pc, #28]	; (714 <reinit_uart+0x30>)
     6f8:	6813      	ldr	r3, [r2, #0]
     6fa:	f423 4340 	bic.w	r3, r3, #49152	; 0xc000
     6fe:	6013      	str	r3, [r2, #0]
     700:	4b05      	ldr	r3, [pc, #20]	; (718 <reinit_uart+0x34>)
     702:	8818      	ldrh	r0, [r3, #0]
     704:	f7ff bfc4 	b.w	690 <__pi_uart_setrate>
     708:	4000102c 	andmi	r1, r0, ip, lsr #32
     70c:	20000200 	andcs	r0, r0, r0, lsl #4
     710:	40001034 	andmi	r1, r0, r4, lsr r0
     714:	40001030 	andmi	r1, r0, r0, lsr r0
     718:	2000011c 	andcs	r0, r0, ip, lsl r1

0000071c <ioreq_uart_a>:
	switch (operation) {
     71c:	3001      	adds	r0, #1
static int ioreq_uart_a (int operation, char *buf, int len) {
     71e:	e92d 43f8 	stmdb	sp!, {r3, r4, r5, r6, r7, r8, r9, lr}
     722:	460d      	mov	r5, r1
     724:	4614      	mov	r4, r2
     726:	2803      	cmp	r0, #3
     728:	d86e      	bhi.n	808 <ioreq_uart_a+0xec>
     72a:	e8df f000 	tbb	[pc, r0]
     72e:	5a471253 	bpl	11c5082 <__ccfg+0x11a50da>
				*buf++ = uart_a_read;
     732:	f8d9 3000 	ldr.w	r3, [r9]
				len--;
     736:	3e01      	subs	r6, #1
				*buf++ = uart_a_read;
     738:	f805 3b01 	strb.w	r3, [r5], #1
			while (len && uart_a_char_available) {
     73c:	b11e      	cbz	r6, 746 <ioreq_uart_a+0x2a>
     73e:	f8d8 3000 	ldr.w	r3, [r8]
     742:	06d8      	lsls	r0, r3, #27
     744:	d5f5      	bpl.n	732 <ioreq_uart_a+0x16>
			if (len != operation) {
     746:	42a6      	cmp	r6, r4
     748:	d00a      	beq.n	760 <ioreq_uart_a+0x44>
				return operation - len;
     74a:	1ba4      	subs	r4, r4, r6
}
     74c:	4620      	mov	r0, r4
     74e:	e8bd 83f8 	ldmia.w	sp!, {r3, r4, r5, r6, r7, r8, r9, pc}
				*buf++ = uart_a_read;
     752:	4616      	mov	r6, r2
			uart_a_disable_int;
     754:	4f2e      	ldr	r7, [pc, #184]	; (810 <ioreq_uart_a+0xf4>)
			if (uart_a_char_available) {
     756:	f8df 80cc 	ldr.w	r8, [pc, #204]	; 824 <ioreq_uart_a+0x108>
				*buf++ = uart_a_read;
     75a:	f8df 90cc 	ldr.w	r9, [pc, #204]	; 828 <ioreq_uart_a+0x10c>
     75e:	e7ed      	b.n	73c <ioreq_uart_a+0x20>
			uart_a_disable_int;
     760:	683b      	ldr	r3, [r7, #0]
     762:	2015      	movs	r0, #21
     764:	695b      	ldr	r3, [r3, #20]
     766:	4798      	blx	r3
			if (uart_a_char_available) {
     768:	f8d8 3000 	ldr.w	r3, [r8]
     76c:	06d9      	lsls	r1, r3, #27
     76e:	d404      	bmi.n	77a <ioreq_uart_a+0x5e>
				uart_a_enable_int;
     770:	683b      	ldr	r3, [r7, #0]
     772:	2015      	movs	r0, #21
     774:	691b      	ldr	r3, [r3, #16]
     776:	4798      	blx	r3
				goto Redo_rx;
     778:	e7e0      	b.n	73c <ioreq_uart_a+0x20>
			_BIS (__pi_uart->flags, UART_FLAGS_IN);
     77a:	4a26      	ldr	r2, [pc, #152]	; (814 <ioreq_uart_a+0xf8>)
     77c:	7993      	ldrb	r3, [r2, #6]
     77e:	f043 0380 	orr.w	r3, r3, #128	; 0x80
			return -2;
     782:	f06f 0401 	mvn.w	r4, #1
			_BIS (__pi_uart->flags, UART_FLAGS_OUT);
     786:	7193      	strb	r3, [r2, #6]
			return -2;
     788:	e7e0      	b.n	74c <ioreq_uart_a+0x30>
				uart_a_write (*buf);
     78a:	f815 3b01 	ldrb.w	r3, [r5], #1
				len--;
     78e:	3e01      	subs	r6, #1
				uart_a_write (*buf);
     790:	f8c9 3000 	str.w	r3, [r9]
			while (len && uart_a_room_in_tx) {
     794:	b11e      	cbz	r6, 79e <ioreq_uart_a+0x82>
     796:	f8d8 3000 	ldr.w	r3, [r8]
     79a:	069a      	lsls	r2, r3, #26
     79c:	d5f5      	bpl.n	78a <ioreq_uart_a+0x6e>
			if (len != operation) {
     79e:	42a6      	cmp	r6, r4
     7a0:	d1d3      	bne.n	74a <ioreq_uart_a+0x2e>
			uart_a_disable_int;
     7a2:	683b      	ldr	r3, [r7, #0]
     7a4:	2015      	movs	r0, #21
     7a6:	695b      	ldr	r3, [r3, #20]
     7a8:	4798      	blx	r3
			if (uart_a_room_in_tx) {
     7aa:	f8d8 3000 	ldr.w	r3, [r8]
     7ae:	069b      	lsls	r3, r3, #26
     7b0:	d40b      	bmi.n	7ca <ioreq_uart_a+0xae>
				uart_a_enable_int;
     7b2:	683b      	ldr	r3, [r7, #0]
     7b4:	2015      	movs	r0, #21
     7b6:	691b      	ldr	r3, [r3, #16]
     7b8:	4798      	blx	r3
				goto Redo_tx;
     7ba:	e7eb      	b.n	794 <ioreq_uart_a+0x78>
				*buf++ = uart_a_read;
     7bc:	4616      	mov	r6, r2
			uart_a_disable_int;
     7be:	4f14      	ldr	r7, [pc, #80]	; (810 <ioreq_uart_a+0xf4>)
			if (uart_a_room_in_tx) {
     7c0:	f8df 8060 	ldr.w	r8, [pc, #96]	; 824 <ioreq_uart_a+0x108>
				uart_a_write (*buf);
     7c4:	f8df 9060 	ldr.w	r9, [pc, #96]	; 828 <ioreq_uart_a+0x10c>
     7c8:	e7e4      	b.n	794 <ioreq_uart_a+0x78>
			_BIS (__pi_uart->flags, UART_FLAGS_OUT);
     7ca:	4a12      	ldr	r2, [pc, #72]	; (814 <ioreq_uart_a+0xf8>)
     7cc:	7993      	ldrb	r3, [r2, #6]
     7ce:	f043 0340 	orr.w	r3, r3, #64	; 0x40
     7d2:	e7d6      	b.n	782 <ioreq_uart_a+0x66>
			uart_a_enable_int;
     7d4:	4b0e      	ldr	r3, [pc, #56]	; (810 <ioreq_uart_a+0xf4>)
     7d6:	2015      	movs	r0, #21
     7d8:	681b      	ldr	r3, [r3, #0]
			return 0;
     7da:	2400      	movs	r4, #0
			uart_a_enable_int;
     7dc:	691b      	ldr	r3, [r3, #16]
     7de:	4798      	blx	r3
			return 0;
     7e0:	e7b4      	b.n	74c <ioreq_uart_a+0x30>
			if (len == UART_CNTRL_SETRATE) {
     7e2:	2a01      	cmp	r2, #1
     7e4:	d109      	bne.n	7fa <ioreq_uart_a+0xde>
				if (__pi_uart_setrate (*((word*)buf),
     7e6:	490b      	ldr	r1, [pc, #44]	; (814 <ioreq_uart_a+0xf8>)
     7e8:	8828      	ldrh	r0, [r5, #0]
     7ea:	f7ff ff51 	bl	690 <__pi_uart_setrate>
     7ee:	2800      	cmp	r0, #0
     7f0:	d1ac      	bne.n	74c <ioreq_uart_a+0x30>
				syserror (EREQPAR, "uar");
     7f2:	2003      	movs	r0, #3
     7f4:	4908      	ldr	r1, [pc, #32]	; (818 <ioreq_uart_a+0xfc>)
			syserror (ENOOPER, "uai");
     7f6:	f7ff fe3b 	bl	470 <__pi_syserror>
			if (len == UART_CNTRL_GETRATE) {
     7fa:	2a02      	cmp	r2, #2
     7fc:	d104      	bne.n	808 <ioreq_uart_a+0xec>
	return urates [0];
     7fe:	4b07      	ldr	r3, [pc, #28]	; (81c <ioreq_uart_a+0x100>)
				return 1;
     800:	2401      	movs	r4, #1
				*((word*)buf) = __pi_uart_getrate (__pi_uart);
     802:	881b      	ldrh	r3, [r3, #0]
     804:	800b      	strh	r3, [r1, #0]
				return 1;
     806:	e7a1      	b.n	74c <ioreq_uart_a+0x30>
			syserror (ENOOPER, "uai");
     808:	2002      	movs	r0, #2
     80a:	4905      	ldr	r1, [pc, #20]	; (820 <ioreq_uart_a+0x104>)
     80c:	e7f3      	b.n	7f6 <ioreq_uart_a+0xda>
     80e:	bf00      	nop
     810:	100001b0 			; <UNDEFINED> instruction: 0x100001b0
     814:	20000200 	andcs	r0, r0, r0, lsl #4
     818:	000041bb 			; <UNDEFINED> instruction: 0x000041bb
     81c:	2000011c 	andcs	r0, r0, ip, lsl r1
     820:	000041bf 			; <UNDEFINED> instruction: 0x000041bf
     824:	40001018 	andmi	r1, r0, r8, lsl r0
     828:	40001000 	andmi	r1, r0, r0

0000082c <UART0IntHandler>:
    HWREG(ui32Base + UART_O_ICR) = ui32IntFlags;
     82c:	f240 72f2 	movw	r2, #2034	; 0x7f2
}

void UART0IntHandler () {
     830:	b530      	push	{r4, r5, lr}
     832:	4b29      	ldr	r3, [pc, #164]	; (8d8 <UART0IntHandler+0xac>)

	uart_a_clear_interrupts;

	if (uart_a_char_available && (__pi_uart->flags & UART_FLAGS_IN)) {
     834:	4c29      	ldr	r4, [pc, #164]	; (8dc <UART0IntHandler+0xb0>)
     836:	601a      	str	r2, [r3, #0]
     838:	6822      	ldr	r2, [r4, #0]
     83a:	06d5      	lsls	r5, r2, #27
     83c:	d423      	bmi.n	886 <UART0IntHandler+0x5a>
     83e:	4b28      	ldr	r3, [pc, #160]	; (8e0 <UART0IntHandler+0xb4>)
     840:	799a      	ldrb	r2, [r3, #6]
     842:	0610      	lsls	r0, r2, #24
     844:	d51f      	bpl.n	886 <UART0IntHandler+0x5a>
		_BIC (__pi_uart->flags, UART_FLAGS_IN);
     846:	799a      	ldrb	r2, [r3, #6]
     848:	f002 027f 	and.w	r2, r2, #127	; 0x7f
     84c:	719a      	strb	r2, [r3, #6]
		RISE_N_SHINE;
     84e:	4a25      	ldr	r2, [pc, #148]	; (8e4 <UART0IntHandler+0xb8>)
     850:	7813      	ldrb	r3, [r2, #0]
     852:	f043 0302 	orr.w	r3, r3, #2
     856:	7013      	strb	r3, [r2, #0]
		i_trigger (devevent (UART_A, READ));
     858:	4b23      	ldr	r3, [pc, #140]	; (8e8 <UART0IntHandler+0xbc>)
     85a:	681a      	ldr	r2, [r3, #0]
     85c:	b19a      	cbz	r2, 886 <UART0IntHandler+0x5a>
     85e:	4610      	mov	r0, r2
     860:	2300      	movs	r3, #0
     862:	f830 1b10 	ldrh.w	r1, [r0], #16
     866:	f001 0107 	and.w	r1, r1, #7
     86a:	4299      	cmp	r1, r3
     86c:	dd09      	ble.n	882 <UART0IntHandler+0x56>
     86e:	f850 5033 	ldr.w	r5, [r0, r3, lsl #3]
     872:	3301      	adds	r3, #1
     874:	f515 7f81 	cmn.w	r5, #258	; 0x102
     878:	d1f7      	bne.n	86a <UART0IntHandler+0x3e>
     87a:	eb02 03c3 	add.w	r3, r2, r3, lsl #3
     87e:	889b      	ldrh	r3, [r3, #4]
     880:	8013      	strh	r3, [r2, #0]
     882:	6ad2      	ldr	r2, [r2, #44]	; 0x2c
     884:	e7ea      	b.n	85c <UART0IntHandler+0x30>
	}

	if (uart_a_room_in_tx && (__pi_uart->flags & UART_FLAGS_OUT)) {
     886:	6823      	ldr	r3, [r4, #0]
     888:	0699      	lsls	r1, r3, #26
     88a:	d424      	bmi.n	8d6 <UART0IntHandler+0xaa>
     88c:	4b14      	ldr	r3, [pc, #80]	; (8e0 <UART0IntHandler+0xb4>)
     88e:	799a      	ldrb	r2, [r3, #6]
     890:	0652      	lsls	r2, r2, #25
     892:	d520      	bpl.n	8d6 <UART0IntHandler+0xaa>
		_BIC (__pi_uart->flags, UART_FLAGS_OUT);
		RISE_N_SHINE;
		i_trigger (devevent (UART_A, WRITE));
     894:	f46f 7480 	mvn.w	r4, #256	; 0x100
		_BIC (__pi_uart->flags, UART_FLAGS_OUT);
     898:	799a      	ldrb	r2, [r3, #6]
     89a:	f002 02bf 	and.w	r2, r2, #191	; 0xbf
     89e:	719a      	strb	r2, [r3, #6]
		RISE_N_SHINE;
     8a0:	4a10      	ldr	r2, [pc, #64]	; (8e4 <UART0IntHandler+0xb8>)
     8a2:	7813      	ldrb	r3, [r2, #0]
     8a4:	f043 0302 	orr.w	r3, r3, #2
     8a8:	7013      	strb	r3, [r2, #0]
		i_trigger (devevent (UART_A, WRITE));
     8aa:	4b0f      	ldr	r3, [pc, #60]	; (8e8 <UART0IntHandler+0xbc>)
     8ac:	681a      	ldr	r2, [r3, #0]
     8ae:	b192      	cbz	r2, 8d6 <UART0IntHandler+0xaa>
     8b0:	4610      	mov	r0, r2
     8b2:	2300      	movs	r3, #0
     8b4:	f830 1b10 	ldrh.w	r1, [r0], #16
     8b8:	f001 0107 	and.w	r1, r1, #7
     8bc:	4299      	cmp	r1, r3
     8be:	dd08      	ble.n	8d2 <UART0IntHandler+0xa6>
     8c0:	f850 5033 	ldr.w	r5, [r0, r3, lsl #3]
     8c4:	3301      	adds	r3, #1
     8c6:	42a5      	cmp	r5, r4
     8c8:	d1f8      	bne.n	8bc <UART0IntHandler+0x90>
     8ca:	eb02 03c3 	add.w	r3, r2, r3, lsl #3
     8ce:	889b      	ldrh	r3, [r3, #4]
     8d0:	8013      	strh	r3, [r2, #0]
     8d2:	6ad2      	ldr	r2, [r2, #44]	; 0x2c
     8d4:	e7eb      	b.n	8ae <UART0IntHandler+0x82>
	}

	RTNI;
}
     8d6:	bd30      	pop	{r4, r5, pc}
     8d8:	40001044 	andmi	r1, r0, r4, asr #32
     8dc:	40001018 	andmi	r1, r0, r8, lsl r0
     8e0:	20000200 	andcs	r0, r0, r0, lsl #4
     8e4:	20000214 	andcs	r0, r0, r4, lsl r2
     8e8:	20000120 	andcs	r0, r0, r0, lsr #2

000008ec <__buttons_setirq>:

// ============================================================================

#ifdef	BUTTON_LIST

void __buttons_setirq (int val) {
     8ec:	b570      	push	{r4, r5, r6, lr}
     8ee:	b672      	cpsid	i
    ASSERT( dioNumberLegal( dioNumber ));

    //
    // Clear the event status for the specified DIO.
    //
    HWREG( GPIO_BASE + GPIO_O_EVFLAGS31_0 ) = ( 1 << dioNumber );
     8f0:	2101      	movs	r1, #1
	int i;
	lword bn;

	cli;
	for (i = 0; i < N_BUTTONS; i++) {
		bn = BUTTON_GPIO (__button_list [i]);
     8f2:	4e0c      	ldr	r6, [pc, #48]	; (924 <__buttons_setirq+0x38>)
     8f4:	4d0c      	ldr	r5, [pc, #48]	; (928 <__buttons_setirq+0x3c>)
     8f6:	8833      	ldrh	r3, [r6, #0]
		GPIO_clearEventDio (bn);
		HWREGBITW (IOC_BASE + (bn << 2), IOC_IOCFG0_EDGE_IRQ_EN_BITN) =
     8f8:	4c0c      	ldr	r4, [pc, #48]	; (92c <__buttons_setirq+0x40>)
		bn = BUTTON_GPIO (__button_list [i]);
     8fa:	0a1b      	lsrs	r3, r3, #8
     8fc:	fa01 f203 	lsl.w	r2, r1, r3
     900:	602a      	str	r2, [r5, #0]
		HWREGBITW (IOC_BASE + (bn << 2), IOC_IOCFG0_EDGE_IRQ_EN_BITN) =
     902:	01da      	lsls	r2, r3, #7
		bn = BUTTON_GPIO (__button_list [i]);
     904:	8873      	ldrh	r3, [r6, #2]
		HWREGBITW (IOC_BASE + (bn << 2), IOC_IOCFG0_EDGE_IRQ_EN_BITN) =
     906:	f102 7281 	add.w	r2, r2, #16908288	; 0x1020000
		bn = BUTTON_GPIO (__button_list [i]);
     90a:	0a1b      	lsrs	r3, r3, #8
     90c:	4099      	lsls	r1, r3
		HWREGBITW (IOC_BASE + (bn << 2), IOC_IOCFG0_EDGE_IRQ_EN_BITN) =
     90e:	01db      	lsls	r3, r3, #7
     910:	f103 7381 	add.w	r3, r3, #16908288	; 0x1020000
     914:	4322      	orrs	r2, r4
     916:	4323      	orrs	r3, r4
     918:	6010      	str	r0, [r2, #0]
     91a:	6029      	str	r1, [r5, #0]
     91c:	6018      	str	r0, [r3, #0]
  __ASM volatile ("cpsie i" : : : "memory");
     91e:	b662      	cpsie	i
			val;
	}
	sti;
}
     920:	bd70      	pop	{r4, r5, r6, pc}
     922:	bf00      	nop
     924:	00004356 	andeq	r4, r0, r6, asr r3
     928:	400220e0 	andmi	r2, r2, r0, ror #1
     92c:	42000048 	andmi	r0, r0, #72	; 0x48

00000930 <__pinlist_setirq>:

#endif

#ifdef	INPUT_PIN_LIST

void __pinlist_setirq (int val) {
     930:	b5f0      	push	{r4, r5, r6, r7, lr}
  __ASM volatile ("cpsid i" : : : "memory");
     932:	b672      	cpsid	i

	int i;
	lword bn;

	cli;
	for (i = 0; i < N_PINLIST; i++) {
     934:	2200      	movs	r2, #0
     936:	2601      	movs	r6, #1
		bn = INPUT_PINLIST_GPIO (__input_pins [i]);
     938:	4f09      	ldr	r7, [pc, #36]	; (960 <__pinlist_setirq+0x30>)
     93a:	4c0a      	ldr	r4, [pc, #40]	; (964 <__pinlist_setirq+0x34>)
		GPIO_clearEventDio (bn);
		HWREGBITW (IOC_BASE + (bn << 2), IOC_IOCFG0_EDGE_IRQ_EN_BITN) =
     93c:	490a      	ldr	r1, [pc, #40]	; (968 <__pinlist_setirq+0x38>)
		bn = INPUT_PINLIST_GPIO (__input_pins [i]);
     93e:	5cbb      	ldrb	r3, [r7, r2]
	for (i = 0; i < N_PINLIST; i++) {
     940:	3201      	adds	r2, #1
		bn = INPUT_PINLIST_GPIO (__input_pins [i]);
     942:	f003 037f 	and.w	r3, r3, #127	; 0x7f
     946:	fa06 f503 	lsl.w	r5, r6, r3
		HWREGBITW (IOC_BASE + (bn << 2), IOC_IOCFG0_EDGE_IRQ_EN_BITN) =
     94a:	01db      	lsls	r3, r3, #7
     94c:	f103 7381 	add.w	r3, r3, #16908288	; 0x1020000
     950:	430b      	orrs	r3, r1
	for (i = 0; i < N_PINLIST; i++) {
     952:	2a04      	cmp	r2, #4
     954:	6025      	str	r5, [r4, #0]
		HWREGBITW (IOC_BASE + (bn << 2), IOC_IOCFG0_EDGE_IRQ_EN_BITN) =
     956:	6018      	str	r0, [r3, #0]
	for (i = 0; i < N_PINLIST; i++) {
     958:	d1f1      	bne.n	93e <__pinlist_setirq+0xe>
  __ASM volatile ("cpsie i" : : : "memory");
     95a:	b662      	cpsie	i
			val;
	}
	sti;
}
     95c:	bdf0      	pop	{r4, r5, r6, r7, pc}
     95e:	bf00      	nop
     960:	00004351 	andeq	r4, r0, r1, asr r3
     964:	400220e0 	andmi	r2, r2, r0, ror #1
     968:	42000048 	andmi	r0, r0, #72	; 0x48

0000096c <GPIOIntHandler>:
void GPIOIntHandler () {
     96c:	b570      	push	{r4, r5, r6, lr}
if (buttons_int) {
     96e:	4c23      	ldr	r4, [pc, #140]	; (9fc <GPIOIntHandler+0x90>)
     970:	6822      	ldr	r2, [r4, #0]
     972:	f412 4fc0 	tst.w	r2, #24576	; 0x6000
     976:	d01e      	beq.n	9b6 <GPIOIntHandler+0x4a>
	buttons_disable ();
     978:	2000      	movs	r0, #0
     97a:	f7ff ffb7 	bl	8ec <__buttons_setirq>
	i_trigger ((aword)&__button_list);
     97e:	4b20      	ldr	r3, [pc, #128]	; (a00 <GPIOIntHandler+0x94>)
     980:	4d20      	ldr	r5, [pc, #128]	; (a04 <GPIOIntHandler+0x98>)
     982:	681a      	ldr	r2, [r3, #0]
     984:	b192      	cbz	r2, 9ac <GPIOIntHandler+0x40>
     986:	4610      	mov	r0, r2
     988:	2300      	movs	r3, #0
     98a:	f830 1b10 	ldrh.w	r1, [r0], #16
     98e:	f001 0107 	and.w	r1, r1, #7
     992:	4299      	cmp	r1, r3
     994:	dd08      	ble.n	9a8 <GPIOIntHandler+0x3c>
     996:	f850 6033 	ldr.w	r6, [r0, r3, lsl #3]
     99a:	3301      	adds	r3, #1
     99c:	42ae      	cmp	r6, r5
     99e:	d1f8      	bne.n	992 <GPIOIntHandler+0x26>
     9a0:	eb02 03c3 	add.w	r3, r2, r3, lsl #3
     9a4:	889b      	ldrh	r3, [r3, #4]
     9a6:	8013      	strh	r3, [r2, #0]
     9a8:	6ad2      	ldr	r2, [r2, #44]	; 0x2c
     9aa:	e7eb      	b.n	984 <GPIOIntHandler+0x18>
	RISE_N_SHINE;
     9ac:	4a16      	ldr	r2, [pc, #88]	; (a08 <GPIOIntHandler+0x9c>)
     9ae:	7813      	ldrb	r3, [r2, #0]
     9b0:	f043 0302 	orr.w	r3, r3, #2
     9b4:	7013      	strb	r3, [r2, #0]
if (pin_sensor_int) {
     9b6:	6823      	ldr	r3, [r4, #0]
     9b8:	f013 5ff0 	tst.w	r3, #503316480	; 0x1e000000
     9bc:	d01d      	beq.n	9fa <GPIOIntHandler+0x8e>
	i_trigger ((aword)(&__input_pins));
     9be:	4b10      	ldr	r3, [pc, #64]	; (a00 <GPIOIntHandler+0x94>)
     9c0:	4c12      	ldr	r4, [pc, #72]	; (a0c <GPIOIntHandler+0xa0>)
     9c2:	6818      	ldr	r0, [r3, #0]
     9c4:	b190      	cbz	r0, 9ec <GPIOIntHandler+0x80>
     9c6:	4601      	mov	r1, r0
     9c8:	2300      	movs	r3, #0
     9ca:	f831 2b10 	ldrh.w	r2, [r1], #16
     9ce:	f002 0207 	and.w	r2, r2, #7
     9d2:	429a      	cmp	r2, r3
     9d4:	dd08      	ble.n	9e8 <GPIOIntHandler+0x7c>
     9d6:	f851 5033 	ldr.w	r5, [r1, r3, lsl #3]
     9da:	3301      	adds	r3, #1
     9dc:	42a5      	cmp	r5, r4
     9de:	d1f8      	bne.n	9d2 <GPIOIntHandler+0x66>
     9e0:	eb00 03c3 	add.w	r3, r0, r3, lsl #3
     9e4:	889b      	ldrh	r3, [r3, #4]
     9e6:	8003      	strh	r3, [r0, #0]
     9e8:	6ac0      	ldr	r0, [r0, #44]	; 0x2c
     9ea:	e7eb      	b.n	9c4 <GPIOIntHandler+0x58>
	__pinsen_disable_and_clear;
     9ec:	f7ff ffa0 	bl	930 <__pinlist_setirq>
	RISE_N_SHINE;
     9f0:	4a05      	ldr	r2, [pc, #20]	; (a08 <GPIOIntHandler+0x9c>)
     9f2:	7813      	ldrb	r3, [r2, #0]
     9f4:	f043 0302 	orr.w	r3, r3, #2
     9f8:	7013      	strb	r3, [r2, #0]
}
     9fa:	bd70      	pop	{r4, r5, r6, pc}
     9fc:	400220e0 	andmi	r2, r2, r0, ror #1
     a00:	20000120 	andcs	r0, r0, r0, lsr #2
     a04:	00004356 	andeq	r4, r0, r6, asr r3
     a08:	20000214 	andcs	r0, r0, r4, lsl r2
     a0c:	00004351 	andeq	r4, r0, r1, asr r3

00000a10 <system_init>:
#endif

// ============================================================================
// ============================================================================

void system_init () {
     a10:	e92d 47f0 	stmdb	sp!, {r4, r5, r6, r7, r8, r9, sl, lr}

	__pi_ondomain (PRCM_DOMAIN_PERIPH);

	PRCMPeripheralRunEnable (PRCM_PERIPH_GPIO);
     a14:	4c58      	ldr	r4, [pc, #352]	; (b78 <system_init+0x168>)
	__pi_ondomain (PRCM_DOMAIN_PERIPH);
     a16:	2004      	movs	r0, #4
     a18:	f7ff fcec 	bl	3f4 <__pi_ondomain>
	PRCMPeripheralRunEnable (PRCM_PERIPH_GPIO);
     a1c:	6823      	ldr	r3, [r4, #0]
     a1e:	f44f 60a0 	mov.w	r0, #1280	; 0x500
     a22:	69db      	ldr	r3, [r3, #28]
     a24:	4798      	blx	r3
	PRCMPeripheralSleepEnable (PRCM_PERIPH_GPIO);
     a26:	6823      	ldr	r3, [r4, #0]
     a28:	f44f 60a0 	mov.w	r0, #1280	; 0x500
     a2c:	6a5b      	ldr	r3, [r3, #36]	; 0x24
     a2e:	4798      	blx	r3
	PRCMPeripheralDeepSleepEnable (PRCM_PERIPH_GPIO);
     a30:	6823      	ldr	r3, [r4, #0]
     a32:	f44f 60a0 	mov.w	r0, #1280	; 0x500
     a36:	6adb      	ldr	r3, [r3, #44]	; 0x2c
     a38:	4798      	blx	r3
PRCMLoadSet(void)
{
    //
    // Enable the update of all load related registers.
    //
    HWREG(PRCM_NONBUF_BASE + PRCM_O_CLKLOADCTL) = PRCM_CLKLOADCTL_LOAD;
     a3a:	2301      	movs	r3, #1
	for (int i = 0; i < sizeof (port_confs) / sizeof (lword); i++) {
     a3c:	2600      	movs	r6, #0
     a3e:	4c4f      	ldr	r4, [pc, #316]	; (b7c <system_init+0x16c>)
     a40:	4f4f      	ldr	r7, [pc, #316]	; (b80 <system_init+0x170>)
		HWREG (IOC_BASE + (pin << 2)) = port_confs [i] & 0x7f077f3f;
     a42:	f8df c17c 	ldr.w	ip, [pc, #380]	; bc0 <system_init+0x1b0>
    HWREGBITW( GPIO_BASE + GPIO_O_DOE31_0, dioNumber ) = outputEnableValue;
     a46:	f8df e17c 	ldr.w	lr, [pc, #380]	; bc4 <system_init+0x1b4>
    HWREG( GPIO_BASE + GPIO_O_DOUTCLR31_0 ) = ( 1 << dioNumber );
     a4a:	f8df 8140 	ldr.w	r8, [pc, #320]	; b8c <system_init+0x17c>
    HWREG( GPIO_BASE + GPIO_O_DOUTSET31_0 ) = ( 1 << dioNumber );
     a4e:	f8df 9134 	ldr.w	r9, [pc, #308]	; b84 <system_init+0x174>
     a52:	6023      	str	r3, [r4, #0]
		pin = (port_confs [i] >> 19) & 0x1f;
     a54:	f857 5b04 	ldr.w	r5, [r7], #4
	for (int i = 0; i < sizeof (port_confs) / sizeof (lword); i++) {
     a58:	3601      	adds	r6, #1
		pin = (port_confs [i] >> 19) & 0x1f;
     a5a:	f3c5 42c4 	ubfx	r2, r5, #19, #5
		HWREG (IOC_BASE + (pin << 2)) = port_confs [i] & 0x7f077f3f;
     a5e:	0091      	lsls	r1, r2, #2
     a60:	f101 4080 	add.w	r0, r1, #1073741824	; 0x40000000
     a64:	f500 2001 	add.w	r0, r0, #528384	; 0x81000
     a68:	ea05 0a0c 	and.w	sl, r5, ip
     a6c:	f8c0 a000 	str.w	sl, [r0]
		if (port_confs [i] & 0x80)
     a70:	0628      	lsls	r0, r5, #24
    HWREGBITW( GPIO_BASE + GPIO_O_DOE31_0, dioNumber ) = outputEnableValue;
     a72:	bf44      	itt	mi
     a74:	ea41 010e 	orrmi.w	r1, r1, lr
     a78:	600b      	strmi	r3, [r1, #0]
		if (port_confs [i] & 0x40)
     a7a:	fa03 f202 	lsl.w	r2, r3, r2
     a7e:	0669      	lsls	r1, r5, #25
    HWREG( GPIO_BASE + GPIO_O_DOUTSET31_0 ) = ( 1 << dioNumber );
     a80:	bf4c      	ite	mi
     a82:	f8c9 2000 	strmi.w	r2, [r9]
    HWREG( GPIO_BASE + GPIO_O_DOUTCLR31_0 ) = ( 1 << dioNumber );
     a86:	f8c8 2000 	strpl.w	r2, [r8]
	for (int i = 0; i < sizeof (port_confs) / sizeof (lword); i++) {
     a8a:	2e11      	cmp	r6, #17
     a8c:	d1e2      	bne.n	a54 <system_init+0x44>
    HWREG( GPIO_BASE + GPIO_O_DOUTSET31_0 ) = ( 1 << dioNumber );
     a8e:	2540      	movs	r5, #64	; 0x40
     a90:	2680      	movs	r6, #128	; 0x80
     a92:	4b3c      	ldr	r3, [pc, #240]	; (b84 <system_init+0x174>)

	// Initialize DIO ports
	port_config ();

#if	LEDS_DRIVER
	all_leds_blink;
     a94:	493c      	ldr	r1, [pc, #240]	; (b88 <system_init+0x178>)
     a96:	601d      	str	r5, [r3, #0]
     a98:	601e      	str	r6, [r3, #0]
     a9a:	780b      	ldrb	r3, [r1, #0]
     a9c:	780b      	ldrb	r3, [r1, #0]
     a9e:	20c8      	movs	r0, #200	; 0xc8
     aa0:	f36f 1307 	bfc	r3, #4, #4
     aa4:	700b      	strb	r3, [r1, #0]
     aa6:	f7ff fc8f 	bl	3c8 <mdelay>
    HWREG( GPIO_BASE + GPIO_O_DOUTCLR31_0 ) = ( 1 << dioNumber );
     aaa:	4b38      	ldr	r3, [pc, #224]	; (b8c <system_init+0x17c>)
     aac:	20c8      	movs	r0, #200	; 0xc8
     aae:	601d      	str	r5, [r3, #0]
     ab0:	601e      	str	r6, [r3, #0]

	// The autoincrement value on channel 2 set to 1 msec
	AONRTCIncValueCh2Set (TCI_TINCR (1));
	// Enable continuous operation of channel 2
	HWREGBITW (AON_RTC_BASE + AON_RTC_O_CHCTL,
		AON_RTC_CHCTL_CH2_CONT_EN_BITN) = 1;
     ab2:	2601      	movs	r6, #1
	all_leds_blink;
     ab4:	780b      	ldrb	r3, [r1, #0]
     ab6:	780b      	ldrb	r3, [r1, #0]
     ab8:	f36f 1307 	bfc	r3, #4, #4
     abc:	700b      	strb	r3, [r1, #0]
     abe:	f7ff fc83 	bl	3c8 <mdelay>
//
//*****************************************************************************
__STATIC_INLINE void
AONRTCIncValueCh2Set(uint32_t ui32IncValue)
{
    HWREG(AON_RTC_BASE + AON_RTC_O_CH2CMPINC) = ui32IncValue;
     ac2:	4b33      	ldr	r3, [pc, #204]	; (b90 <system_init+0x180>)

	// Define the combined event as consisting of channels 0 and 2 and
	// enable the clock
	HWREG (AON_RTC_BASE + AON_RTC_O_CTL) =
     ac4:	4a33      	ldr	r2, [pc, #204]	; (b94 <system_init+0x184>)
     ac6:	601d      	str	r5, [r3, #0]
		AON_RTC_CHCTL_CH2_CONT_EN_BITN) = 1;
     ac8:	4b33      	ldr	r3, [pc, #204]	; (b98 <system_init+0x188>)
		// For the radio
		AON_RTC_CTL_RTC_UPD_EN |
		AON_RTC_CTL_EN;

	// Enable RTC interrupts
	IntEnable (INT_AON_RTC_COMB);
     aca:	4d34      	ldr	r5, [pc, #208]	; (b9c <system_init+0x18c>)
		AON_RTC_CHCTL_CH2_CONT_EN_BITN) = 1;
     acc:	601e      	str	r6, [r3, #0]
	HWREG (AON_RTC_BASE + AON_RTC_O_CTL) =
     ace:	4b34      	ldr	r3, [pc, #208]	; (ba0 <system_init+0x190>)
	IntEnable (INT_AON_RTC_COMB);
     ad0:	2014      	movs	r0, #20
	HWREG (AON_RTC_BASE + AON_RTC_O_CTL) =
     ad2:	601a      	str	r2, [r3, #0]
	IntEnable (INT_AON_RTC_COMB);
     ad4:	682b      	ldr	r3, [r5, #0]
     ad6:	691b      	ldr	r3, [r3, #16]
     ad8:	4798      	blx	r3

	// Initialize the memory allocator
	__pi_malloc_init ();
     ada:	f000 fbeb 	bl	12b4 <__pi_malloc_init>

	// Enable GPIO interrupts
	IntEnable (INT_AON_GPIO_EDGE);
     ade:	682b      	ldr	r3, [r5, #0]
     ae0:	2010      	movs	r0, #16
     ae2:	691b      	ldr	r3, [r3, #16]
     ae4:	4798      	blx	r3
		EMERGENCY_STARTUP_ACTION;
	}
#endif

#ifdef	NEED_SERIAL_DOMAIN
	__pi_ondomain (PRCM_DOMAIN_SERIAL);
     ae6:	2002      	movs	r0, #2
     ae8:	f7ff fc84 	bl	3f4 <__pi_ondomain>
	PRCMPeripheralRunEnable (PRCM_PERIPH_UART0);
     aec:	68ab      	ldr	r3, [r5, #8]
     aee:	f44f 7000 	mov.w	r0, #512	; 0x200
     af2:	69db      	ldr	r3, [r3, #28]
     af4:	4798      	blx	r3
	PRCMPeripheralSleepEnable (PRCM_PERIPH_UART0);
     af6:	68ab      	ldr	r3, [r5, #8]
     af8:	f44f 7000 	mov.w	r0, #512	; 0x200
     afc:	6a5b      	ldr	r3, [r3, #36]	; 0x24
     afe:	4798      	blx	r3
	PRCMPeripheralDeepSleepEnable (PRCM_PERIPH_UART0);
     b00:	68ab      	ldr	r3, [r5, #8]
     b02:	f44f 7000 	mov.w	r0, #512	; 0x200
     b06:	6adb      	ldr	r3, [r3, #44]	; 0x2c
     b08:	4798      	blx	r3
	urates [0] = UART_RATE / 100;
     b0a:	2260      	movs	r2, #96	; 0x60
     b0c:	4b25      	ldr	r3, [pc, #148]	; (ba4 <system_init+0x194>)
     b0e:	6026      	str	r6, [r4, #0]
     b10:	801a      	strh	r2, [r3, #0]
	reinit_uart ();
     b12:	f7ff fde7 	bl	6e4 <reinit_uart>
	__pi_init_actuators ();
#endif

#ifdef	EXTRA_INITIALIZERS
	// Extra initialization
	EXTRA_INITIALIZERS;
     b16:	f001 f94b 	bl	1db0 <ee_open>
     b1a:	f001 f953 	bl	1dc4 <ee_close>
#endif
	// If waking from shutdown, unfreeze the I/O
	if (SysCtrlResetSourceGet () == RSTSRC_WAKEUP_FROM_SHUTDOWN) {
     b1e:	f003 f9e7 	bl	3ef0 <NOROM_SysCtrlResetSourceGet>
     b22:	2808      	cmp	r0, #8
     b24:	d11a      	bne.n	b5c <system_init+0x14c>
AONIOCFreezeDisable(void)
{
    //
    // Set the AON IOC latches as transparent.
    //
    HWREG(AON_IOC_BASE + AON_IOC_O_IOCLATCH) = AON_IOC_IOCLATCH_EN;
     b26:	4b20      	ldr	r3, [pc, #128]	; (ba8 <system_init+0x198>)
     b28:	601e      	str	r6, [r3, #0]
{
    //
    // Open the IO latches at AON_IOC level and in the padring
    //
    AONIOCFreezeDisable();
    HWREG(AON_SYSCTL_BASE + AON_SYSCTL_O_SLEEPCTL) = 1;
     b2a:	f5a3 4380 	sub.w	r3, r3, #16384	; 0x4000
     b2e:	3b04      	subs	r3, #4
     b30:	601e      	str	r6, [r3, #0]
    HWREG(AON_RTC_BASE + AON_RTC_O_SYNC);
     b32:	f503 5300 	add.w	r3, r3, #8192	; 0x2000
     b36:	3324      	adds	r3, #36	; 0x24
     b38:	681b      	ldr	r3, [r3, #0]
	}

#if	MAX_DEVICES
	for (int i = UART; i < MAX_DEVICES; i++)
		if (devinit [i] . init != NULL)
			devinit [i] . init (devinit [i] . param);
     b3a:	2000      	movs	r0, #0
     b3c:	f7ff fc28 	bl	390 <devinit_uart>
    HWREG(ui32Base + UART_O_IMSC) |= ui32IntFlags;
     b40:	4a1a      	ldr	r2, [pc, #104]	; (bac <system_init+0x19c>)
#endif

#ifdef	N_UARTS
	// The same for UART_DRIVER and UART_TCV
	enable_uart_interrupts ();
	IntEnable (INT_UART0_COMB);
     b42:	2015      	movs	r0, #21
     b44:	6813      	ldr	r3, [r2, #0]
     b46:	f043 0370 	orr.w	r3, r3, #112	; 0x70
     b4a:	6013      	str	r3, [r2, #0]
     b4c:	4b13      	ldr	r3, [pc, #76]	; (b9c <system_init+0x18c>)
     b4e:	681b      	ldr	r3, [r3, #0]
     b50:	691b      	ldr	r3, [r3, #16]
     b52:	4798      	blx	r3
#endif
	// Kick the auxiliary timer in case something is needed by the
	// drivers
	tci_run_auxiliary_timer ();
}
     b54:	e8bd 47f0 	ldmia.w	sp!, {r4, r5, r6, r7, r8, r9, sl, lr}
	tci_run_auxiliary_timer ();
     b58:	f7ff bcd4 	b.w	504 <tci_run_auxiliary_timer>
		diag ("");
     b5c:	4814      	ldr	r0, [pc, #80]	; (bb0 <system_init+0x1a0>)
     b5e:	f000 fc97 	bl	1490 <diag>
		diag ("PicOS v" SYSVER_S "/" SYSVER_R
     b62:	4814      	ldr	r0, [pc, #80]	; (bb4 <system_init+0x1a4>)
     b64:	f000 fc94 	bl	1490 <diag>
			(word)((aword)STACK_END - (aword)(&__bss_end__)));
     b68:	4913      	ldr	r1, [pc, #76]	; (bb8 <system_init+0x1a8>)
		diag ("Leftover RAM: %d bytes",
     b6a:	4814      	ldr	r0, [pc, #80]	; (bbc <system_init+0x1ac>)
     b6c:	f5c1 4198 	rsb	r1, r1, #19456	; 0x4c00
     b70:	b289      	uxth	r1, r1
     b72:	f000 fc8d 	bl	1490 <diag>
     b76:	e7e0      	b.n	b3a <system_init+0x12a>
     b78:	100001b8 			; <UNDEFINED> instruction: 0x100001b8
     b7c:	60082028 	andvs	r2, r8, r8, lsr #32
     b80:	00004238 	andeq	r4, r0, r8, lsr r2
     b84:	40022090 	mulmi	r2, r0, r0
     b88:	20000214 	andcs	r0, r0, r4, lsl r2
     b8c:	400220a0 	andmi	r2, r2, r0, lsr #1
     b90:	40092024 	andmi	r2, r9, r4, lsr #32
     b94:	00050003 	andeq	r0, r5, r3
     b98:	432402c8 			; <UNDEFINED> instruction: 0x432402c8
     b9c:	100001b0 			; <UNDEFINED> instruction: 0x100001b0
     ba0:	40092000 	andmi	r2, r9, r0
     ba4:	2000011c 	andcs	r0, r0, ip, lsl r1
     ba8:	4009400c 	andmi	r4, r9, ip
     bac:	40001038 	andmi	r1, r0, r8, lsr r0
     bb0:	00004122 	andeq	r4, r0, r2, lsr #2
     bb4:	000041c3 	andeq	r4, r0, r3, asr #3
     bb8:	20000234 	andcs	r0, r0, r4, lsr r2
     bbc:	0000420f 	andeq	r4, r0, pc, lsl #4
     bc0:	7f077f3f 	svcvc	0x00077f3f
     bc4:	42441a00 	submi	r1, r4, #0, 20

00000bc8 <setpowermode>:
//
	if (mode > 3)
		// This is the maximum
		mode = 3;

	__pi_systat.effpdm = ((__pi_systat.reqpdm = mode) < 2 ||
     bc8:	2803      	cmp	r0, #3
     bca:	4603      	mov	r3, r0
     bcc:	bf28      	it	cs
     bce:	2303      	movcs	r3, #3
     bd0:	4a05      	ldr	r2, [pc, #20]	; (be8 <setpowermode+0x20>)
     bd2:	b2db      	uxtb	r3, r3
     bd4:	2801      	cmp	r0, #1
     bd6:	7093      	strb	r3, [r2, #2]
     bd8:	d904      	bls.n	be4 <setpowermode+0x1c>
	    (__pi_systat.ondmns & PRCM_DOMAIN_RFCORE) == 0) ?
     bda:	6851      	ldr	r1, [r2, #4]
	__pi_systat.effpdm = ((__pi_systat.reqpdm = mode) < 2 ||
     bdc:	f011 0f01 	tst.w	r1, #1
     be0:	bf18      	it	ne
     be2:	2301      	movne	r3, #1
     be4:	70d3      	strb	r3, [r2, #3]
		mode : 1;
}
     be6:	4770      	bx	lr
     be8:	20000214 	andcs	r0, r0, r4, lsl r2

00000bec <__pi_release>:
	return sc;
}

#endif

__attribute__ ((noreturn)) void __pi_release () {
     bec:	e92d 4880 	stmdb	sp!, {r7, fp, lr}
     bf0:	b083      	sub	sp, #12
  \details Assigns the given value to the Main Stack Pointer (MSP).
  \param [in]    topOfMainStack  Main Stack Pointer value to set
 */
__attribute__((always_inline)) __STATIC_INLINE void __set_MSP(uint32_t topOfMainStack)
{
  __ASM volatile ("MSR msp, %0" : : "r" (topOfMainStack) : "sp");
     bf2:	4b79      	ldr	r3, [pc, #484]	; (dd8 <__pi_release+0x1ec>)
     bf4:	af00      	add	r7, sp, #0
     bf6:	f383 8808 	msr	MSP, r3

	__set_MSP ((lword)(STACK_START));

	check_stack_overflow;
     bfa:	f2a3 4304 	subw	r3, r3, #1028	; 0x404
     bfe:	681a      	ldr	r2, [r3, #0]
     c00:	4b76      	ldr	r3, [pc, #472]	; (ddc <__pi_release+0x1f0>)
     c02:	429a      	cmp	r2, r3
     c04:	d127      	bne.n	c56 <__pi_release+0x6a>
SysCtrlAonSync(void)
{
    //
    // Sync the AON interface
    //
    HWREG(AON_RTC_BASE + AON_RTC_O_SYNC);
     c06:	4e76      	ldr	r6, [pc, #472]	; (de0 <__pi_release+0x1f4>)

#ifdef	MONITOR_PIN_SCHED
	_PVS (MONITOR_PIN_SCHED, 1);
#endif
	// Catch up with time
	update_n_wake (MAX_WORD, NO);
     c08:	2100      	movs	r1, #0
     c0a:	f64f 70ff 	movw	r0, #65535	; 0xffff
     c0e:	f000 f9ed 	bl	fec <update_n_wake>

	// Run the first ready process
	for_all_tasks (__pi_curr) {
     c12:	4a74      	ldr	r2, [pc, #464]	; (de4 <__pi_release+0x1f8>)
     c14:	4b74      	ldr	r3, [pc, #464]	; (de8 <__pi_release+0x1fc>)
     c16:	6812      	ldr	r2, [r2, #0]
     c18:	601a      	str	r2, [r3, #0]
     c1a:	681a      	ldr	r2, [r3, #0]
     c1c:	b9fa      	cbnz	r2, c5e <__pi_release+0x72>
			HWREG (NVIC_SYS_CTRL) |= NVIC_SYS_CTRL_SLEEPDEEP;
     c1e:	4c73      	ldr	r4, [pc, #460]	; (dec <__pi_release+0x200>)
  __ASM volatile ("cpsid i" : : : "memory");
     c20:	b672      	cpsid	i
	entropy++;
#endif

#else	/* NOT SPIN_WHEN_HALTED */

	__SLEEP;
     c22:	4d73      	ldr	r5, [pc, #460]	; (df0 <__pi_release+0x204>)
     c24:	782b      	ldrb	r3, [r5, #0]
     c26:	f3c3 0240 	ubfx	r2, r3, #1, #1
     c2a:	0798      	lsls	r0, r3, #30
     c2c:	607a      	str	r2, [r7, #4]
     c2e:	f100 80cd 	bmi.w	dcc <__pi_release+0x1e0>
	system_event_count ++;
     c32:	4a70      	ldr	r2, [pc, #448]	; (df4 <__pi_release+0x208>)
     c34:	6813      	ldr	r3, [r2, #0]
     c36:	3301      	adds	r3, #1
     c38:	6013      	str	r3, [r2, #0]
	switch (__pi_systat.effpdm) {
     c3a:	78ea      	ldrb	r2, [r5, #3]
     c3c:	2a01      	cmp	r2, #1
     c3e:	b2d3      	uxtb	r3, r2
     c40:	d017      	beq.n	c72 <__pi_release+0x86>
     c42:	2b02      	cmp	r3, #2
     c44:	d031      	beq.n	caa <__pi_release+0xbe>
     c46:	2b00      	cmp	r3, #0
     c48:	f040 8095 	bne.w	d76 <__pi_release+0x18a>
			__WFI ();
     c4c:	bf30      	wfi
  __ASM volatile ("cpsie i" : : : "memory");
     c4e:	b662      	cpsie	i
     c50:	bf00      	nop
     c52:	bf00      	nop
     c54:	e7e4      	b.n	c20 <__pi_release+0x34>
	check_stack_overflow;
     c56:	200b      	movs	r0, #11
     c58:	4967      	ldr	r1, [pc, #412]	; (df8 <__pi_release+0x20c>)
     c5a:	f7ff fc09 	bl	470 <__pi_syserror>
		if (__pi_curr->code != NULL && !waiting (__pi_curr)) {
     c5e:	6851      	ldr	r1, [r2, #4]
     c60:	b129      	cbz	r1, c6e <__pi_release+0x82>
     c62:	8810      	ldrh	r0, [r2, #0]
     c64:	0704      	lsls	r4, r0, #28
     c66:	d102      	bne.n	c6e <__pi_release+0x82>
			(__pi_curr->code) (tstate (__pi_curr));
     c68:	0900      	lsrs	r0, r0, #4
     c6a:	4788      	blx	r1
			goto Redo;
     c6c:	e7cc      	b.n	c08 <__pi_release+0x1c>
	for_all_tasks (__pi_curr) {
     c6e:	6ad2      	ldr	r2, [r2, #44]	; 0x2c
     c70:	e7d2      	b.n	c18 <__pi_release+0x2c>
			HWREG (PRCM_BASE + PRCM_O_PDCTL1VIMS) |=
     c72:	4a62      	ldr	r2, [pc, #392]	; (dfc <__pi_release+0x210>)
			PRCMPowerDomainOff (PRCM_DOMAIN_CPU);
     c74:	2020      	movs	r0, #32
			HWREG (PRCM_BASE + PRCM_O_PDCTL1VIMS) |=
     c76:	6813      	ldr	r3, [r2, #0]
     c78:	f043 0301 	orr.w	r3, r3, #1
     c7c:	6013      	str	r3, [r2, #0]
//
//*****************************************************************************
__STATIC_INLINE void
PRCMCacheRetentionEnable( void )
{
   HWREG( PRCM_BASE + PRCM_O_RAMRETEN ) |= PRCM_RAMRETEN_VIMS_M;
     c7e:	f8d2 3098 	ldr.w	r3, [r2, #152]	; 0x98
     c82:	f043 0303 	orr.w	r3, r3, #3
     c86:	f8c2 3098 	str.w	r3, [r2, #152]	; 0x98
			PRCMPowerDomainOff (PRCM_DOMAIN_CPU);
     c8a:	4b5d      	ldr	r3, [pc, #372]	; (e00 <__pi_release+0x214>)
     c8c:	681b      	ldr	r3, [r3, #0]
     c8e:	699b      	ldr	r3, [r3, #24]
     c90:	4798      	blx	r3
     c92:	6833      	ldr	r3, [r6, #0]
			HWREG (NVIC_SYS_CTRL) |= NVIC_SYS_CTRL_SLEEPDEEP;
     c94:	6823      	ldr	r3, [r4, #0]
     c96:	f043 0304 	orr.w	r3, r3, #4
     c9a:	6023      	str	r3, [r4, #0]
			__WFI ();
     c9c:	bf30      	wfi
			HWREG (NVIC_SYS_CTRL) &= ~(NVIC_SYS_CTRL_SLEEPDEEP);
     c9e:	6823      	ldr	r3, [r4, #0]
     ca0:	f023 0304 	bic.w	r3, r3, #4
     ca4:	6023      	str	r3, [r4, #0]
     ca6:	6833      	ldr	r3, [r6, #0]
}
     ca8:	e7d1      	b.n	c4e <__pi_release+0x62>
    HWREG(PRCM_NONBUF_BASE + PRCM_O_CLKLOADCTL) = PRCM_CLKLOADCTL_LOAD;
     caa:	f04f 0801 	mov.w	r8, #1
    HWREG(AON_IOC_BASE + AON_IOC_O_IOCLATCH) = 0x0;
     cae:	687a      	ldr	r2, [r7, #4]
     cb0:	4b54      	ldr	r3, [pc, #336]	; (e04 <__pi_release+0x218>)
    // Check the arguments.
    ASSERT((ui32Mode == AONWUC_AUX_WAKEUP) ||
           (ui32Mode == AONWUC_AUX_ALLOW_SLEEP));

    // Wake up the AUX domain.
    HWREGBITW(AON_WUC_BASE + AON_WUC_O_AUXCTL, AON_WUC_AUXCTL_AUX_FORCE_ON_BITN) = ui32Mode;
     cb2:	f8df b188 	ldr.w	fp, [pc, #392]	; e3c <__pi_release+0x250>
     cb6:	601a      	str	r2, [r3, #0]
     cb8:	687b      	ldr	r3, [r7, #4]
			PRCMPowerDomainOff (__pi_systat.ondmns |
     cba:	f8df a144 	ldr.w	sl, [pc, #324]	; e00 <__pi_release+0x214>
     cbe:	f8cb 3000 	str.w	r3, [fp]
    HWREG(AON_RTC_BASE + AON_RTC_O_SYNC);
     cc2:	6833      	ldr	r3, [r6, #0]
     cc4:	4b50      	ldr	r3, [pc, #320]	; (e08 <__pi_release+0x21c>)
//
//*****************************************************************************
__STATIC_INLINE void
PRCMCacheRetentionDisable( void )
{
   HWREG( PRCM_BASE + PRCM_O_RAMRETEN ) &= ~PRCM_RAMRETEN_VIMS_M;
     cc6:	f8df 9178 	ldr.w	r9, [pc, #376]	; e40 <__pi_release+0x254>
    HWREG(PRCM_NONBUF_BASE + PRCM_O_CLKLOADCTL) = PRCM_CLKLOADCTL_LOAD;
     cca:	f8c3 8000 	str.w	r8, [r3]
     cce:	6868      	ldr	r0, [r5, #4]
     cd0:	f8da 3000 	ldr.w	r3, [sl]
     cd4:	f040 0020 	orr.w	r0, r0, #32
     cd8:	699b      	ldr	r3, [r3, #24]
     cda:	4798      	blx	r3
    HWREGBITW(PRCM_BASE + PRCM_O_VDCTL, PRCM_VDCTL_ULDO_BITN) = ui32Enable;
     cdc:	4b4b      	ldr	r3, [pc, #300]	; (e0c <__pi_release+0x220>)
			VIMSModeSet (VIMS_BASE, VIMS_MODE_OFF);
     cde:	2103      	movs	r1, #3
     ce0:	f8c3 8000 	str.w	r8, [r3]
   HWREG( PRCM_BASE + PRCM_O_RAMRETEN ) &= ~PRCM_RAMRETEN_VIMS_M;
     ce4:	f8d9 3000 	ldr.w	r3, [r9]
     ce8:	4849      	ldr	r0, [pc, #292]	; (e10 <__pi_release+0x224>)
     cea:	f023 0303 	bic.w	r3, r3, #3
     cee:	f8c9 3000 	str.w	r3, [r9]
     cf2:	4b48      	ldr	r3, [pc, #288]	; (e14 <__pi_release+0x228>)
     cf4:	681a      	ldr	r2, [r3, #0]
     cf6:	6852      	ldr	r2, [r2, #4]
     cf8:	4790      	blx	r2
			SysCtrlSetRechargeBeforePowerDown
     cfa:	6878      	ldr	r0, [r7, #4]
     cfc:	f002 ffb8 	bl	3c70 <NOROM_SysCtrlSetRechargeBeforePowerDown>
     d00:	6832      	ldr	r2, [r6, #0]
			HWREG (NVIC_SYS_CTRL) |= NVIC_SYS_CTRL_SLEEPDEEP;
     d02:	6822      	ldr	r2, [r4, #0]
     d04:	f042 0204 	orr.w	r2, r2, #4
     d08:	6022      	str	r2, [r4, #0]
			__WFI ();
     d0a:	bf30      	wfi
			HWREG (NVIC_SYS_CTRL) &= ~(NVIC_SYS_CTRL_SLEEPDEEP);
     d0c:	6822      	ldr	r2, [r4, #0]
			VIMSModeSet (VIMS_BASE, VIMS_MODE_ENABLED);
     d0e:	4b41      	ldr	r3, [pc, #260]	; (e14 <__pi_release+0x228>)
			HWREG (NVIC_SYS_CTRL) &= ~(NVIC_SYS_CTRL_SLEEPDEEP);
     d10:	f022 0204 	bic.w	r2, r2, #4
     d14:	6022      	str	r2, [r4, #0]
			VIMSModeSet (VIMS_BASE, VIMS_MODE_ENABLED);
     d16:	681b      	ldr	r3, [r3, #0]
     d18:	4641      	mov	r1, r8
     d1a:	685b      	ldr	r3, [r3, #4]
     d1c:	483c      	ldr	r0, [pc, #240]	; (e10 <__pi_release+0x224>)
     d1e:	4798      	blx	r3
   HWREG( PRCM_BASE + PRCM_O_RAMRETEN ) |= PRCM_RAMRETEN_VIMS_M;
     d20:	f8d9 3000 	ldr.w	r3, [r9]
AONWUCPowerStatusGet(void)
{
    //
    // Return the power status.
    //
    return (HWREG(AON_WUC_BASE + AON_WUC_O_PWRSTAT));
     d24:	4a3c      	ldr	r2, [pc, #240]	; (e18 <__pi_release+0x22c>)
     d26:	f043 0303 	orr.w	r3, r3, #3
     d2a:	f8c9 3000 	str.w	r3, [r9]
    HWREGBITW(AON_WUC_BASE + AON_WUC_O_AUXCTL, AON_WUC_AUXCTL_AUX_FORCE_ON_BITN) = ui32Mode;
     d2e:	f8cb 8000 	str.w	r8, [fp]
    return (HWREG(AON_WUC_BASE + AON_WUC_O_PWRSTAT));
     d32:	6813      	ldr	r3, [r2, #0]
			while (!(AONWUCPowerStatusGet () &
     d34:	0699      	lsls	r1, r3, #26
     d36:	d5fc      	bpl.n	d32 <__pi_release+0x146>
			PRCMPowerDomainOn (__pi_systat.ondmns);
     d38:	f8da 3000 	ldr.w	r3, [sl]
     d3c:	6868      	ldr	r0, [r5, #4]
     d3e:	695b      	ldr	r3, [r3, #20]
     d40:	4798      	blx	r3
			while (PRCMPowerDomainStatus (__pi_systat.ondmns) !=
     d42:	4d2f      	ldr	r5, [pc, #188]	; (e00 <__pi_release+0x214>)
     d44:	4b2a      	ldr	r3, [pc, #168]	; (df0 <__pi_release+0x204>)
     d46:	6858      	ldr	r0, [r3, #4]
     d48:	682b      	ldr	r3, [r5, #0]
     d4a:	6b5b      	ldr	r3, [r3, #52]	; 0x34
     d4c:	4798      	blx	r3
     d4e:	2801      	cmp	r0, #1
     d50:	d1f8      	bne.n	d44 <__pi_release+0x158>
    HWREG(PRCM_NONBUF_BASE + PRCM_O_CLKLOADCTL) = PRCM_CLKLOADCTL_LOAD;
     d52:	4b2d      	ldr	r3, [pc, #180]	; (e08 <__pi_release+0x21c>)
    HWREGBITW(PRCM_BASE + PRCM_O_VDCTL, PRCM_VDCTL_ULDO_BITN) = ui32Enable;
     d54:	4a2d      	ldr	r2, [pc, #180]	; (e0c <__pi_release+0x220>)
    HWREG(PRCM_NONBUF_BASE + PRCM_O_CLKLOADCTL) = PRCM_CLKLOADCTL_LOAD;
     d56:	6018      	str	r0, [r3, #0]
    HWREGBITW(PRCM_BASE + PRCM_O_VDCTL, PRCM_VDCTL_ULDO_BITN) = ui32Enable;
     d58:	2300      	movs	r3, #0
     d5a:	6013      	str	r3, [r2, #0]
    HWREG(AON_IOC_BASE + AON_IOC_O_IOCLATCH) = AON_IOC_IOCLATCH_EN;
     d5c:	4b29      	ldr	r3, [pc, #164]	; (e04 <__pi_release+0x218>)
     d5e:	6018      	str	r0, [r3, #0]
     d60:	6833      	ldr	r3, [r6, #0]
			SysCtrlAdjustRechargeAfterPowerDown ();
     d62:	f003 f895 	bl	3e90 <NOROM_SysCtrlAdjustRechargeAfterPowerDown>
			reinit_uart ();
     d66:	f7ff fcbd 	bl	6e4 <reinit_uart>
     d6a:	4a2c      	ldr	r2, [pc, #176]	; (e1c <__pi_release+0x230>)
     d6c:	6813      	ldr	r3, [r2, #0]
     d6e:	f043 0370 	orr.w	r3, r3, #112	; 0x70
     d72:	6013      	str	r3, [r2, #0]
}
     d74:	e76b      	b.n	c4e <__pi_release+0x62>
			AUXWUCPowerCtrl (AUX_WUC_POWER_OFF);
     d76:	4b2a      	ldr	r3, [pc, #168]	; (e20 <__pi_release+0x234>)
     d78:	2001      	movs	r0, #1
     d7a:	681b      	ldr	r3, [r3, #0]
     d7c:	68db      	ldr	r3, [r3, #12]
     d7e:	4798      	blx	r3
			HWREG (AON_WUC_BASE + AON_WUC_O_AUXCTL) &=
     d80:	4a28      	ldr	r2, [pc, #160]	; (e24 <__pi_release+0x238>)
			HWREG (AON_EVENT_BASE + AON_EVENT_O_MCUWUSEL) =
     d82:	4929      	ldr	r1, [pc, #164]	; (e28 <__pi_release+0x23c>)
			HWREG (AON_WUC_BASE + AON_WUC_O_AUXCTL) &=
     d84:	6813      	ldr	r3, [r2, #0]
     d86:	f023 0301 	bic.w	r3, r3, #1
     d8a:	6013      	str	r3, [r2, #0]
			HWREG (AON_WUC_BASE + AON_WUC_O_JTAGCFG) &=
     d8c:	4b27      	ldr	r3, [pc, #156]	; (e2c <__pi_release+0x240>)
     d8e:	681a      	ldr	r2, [r3, #0]
     d90:	f422 7280 	bic.w	r2, r2, #256	; 0x100
     d94:	601a      	str	r2, [r3, #0]
			HWREG (AON_EVENT_BASE + AON_EVENT_O_MCUWUSEL) =
     d96:	f04f 323f 	mov.w	r2, #1061109567	; 0x3f3f3f3f
     d9a:	600a      	str	r2, [r1, #0]
			HWREG (AON_EVENT_BASE + AON_EVENT_O_AUXWUSEL) =
     d9c:	604a      	str	r2, [r1, #4]
     d9e:	6832      	ldr	r2, [r6, #0]
__STATIC_INLINE void
AONWUCShutDownEnable(void)
{
    // Ensure the JTAG domain is turned off;
    // otherwise MCU domain can't be turned off.
    HWREG(AON_WUC_BASE + AON_WUC_O_JTAGCFG) = 0;
     da0:	687a      	ldr	r2, [r7, #4]
     da2:	601a      	str	r2, [r3, #0]

    // Enable shutdown of the device.
    HWREGBITW(AON_WUC_BASE + AON_WUC_O_CTL0, AON_WUC_CTL0_PWR_DWN_DIS_BITN) = 0;
     da4:	687a      	ldr	r2, [r7, #4]
     da6:	4b22      	ldr	r3, [pc, #136]	; (e30 <__pi_release+0x244>)
     da8:	601a      	str	r2, [r3, #0]
    HWREG(AON_WUC_BASE + AON_WUC_O_SHUTDOWN) = AON_WUC_SHUTDOWN_EN;
     daa:	2201      	movs	r2, #1
     dac:	4b21      	ldr	r3, [pc, #132]	; (e34 <__pi_release+0x248>)
     dae:	601a      	str	r2, [r3, #0]
     db0:	6833      	ldr	r3, [r6, #0]
    return (HWREG(AON_WUC_BASE + AON_WUC_O_PWRSTAT));
     db2:	4a19      	ldr	r2, [pc, #100]	; (e18 <__pi_release+0x22c>)
     db4:	6813      	ldr	r3, [r2, #0]
			while (AONWUCPowerStatusGet () & AONWUC_AUX_POWER_ON);
     db6:	069b      	lsls	r3, r3, #26
     db8:	d4fc      	bmi.n	db4 <__pi_release+0x1c8>
    HWREGBITW(PRCM_BASE + PRCM_O_VDCTL, PRCM_VDCTL_MCU_VD_BITN) = 1;
     dba:	2201      	movs	r2, #1
     dbc:	4b1e      	ldr	r3, [pc, #120]	; (e38 <__pi_release+0x24c>)
			PRCMPowerDomainOff (
     dbe:	2037      	movs	r0, #55	; 0x37
     dc0:	601a      	str	r2, [r3, #0]
     dc2:	4b0f      	ldr	r3, [pc, #60]	; (e00 <__pi_release+0x214>)
     dc4:	681b      	ldr	r3, [r3, #0]
     dc6:	699b      	ldr	r3, [r3, #24]
     dc8:	4798      	blx	r3
			goto DeepSleep;
     dca:	e763      	b.n	c94 <__pi_release+0xa8>
	__SLEEP;
     dcc:	782b      	ldrb	r3, [r5, #0]
     dce:	f36f 0341 	bfc	r3, #1, #1
     dd2:	702b      	strb	r3, [r5, #0]
     dd4:	b662      	cpsie	i

#endif	/* SPIN_WHEN_HALTED */

	goto Redo;
     dd6:	e717      	b.n	c08 <__pi_release+0x1c>
     dd8:	20005000 	andcs	r5, r0, r0
     ddc:	a778b779 			; <UNDEFINED> instruction: 0xa778b779
     de0:	4009202c 	andmi	r2, r9, ip, lsr #32
     de4:	20000120 	andcs	r0, r0, r0, lsr #2
     de8:	20000230 	andcs	r0, r0, r0, lsr r2
     dec:	e000ed10 	and	lr, r0, r0, lsl sp
     df0:	20000214 	andcs	r0, r0, r4, lsl r2
     df4:	20000208 	andcs	r0, r0, r8, lsl #4
     df8:	00004226 	andeq	r4, r0, r6, lsr #4
     dfc:	4008218c 	andmi	r2, r8, ip, lsl #3
     e00:	100001b8 			; <UNDEFINED> instruction: 0x100001b8
     e04:	4009400c 	andmi	r4, r9, ip
     e08:	60082028 	andvs	r2, r8, r8, lsr #32
     e0c:	43040180 	movwmi	r0, #16768	; 0x4180
     e10:	40034000 	andmi	r4, r3, r0
     e14:	100001d8 	ldrdne	r0, [r0], -r8
     e18:	40091014 	andmi	r1, r9, r4, lsl r0
     e1c:	40001038 	andmi	r1, r0, r8, lsr r0
     e20:	100001a0 	andne	r0, r0, r0, lsr #3
     e24:	40091010 	andmi	r1, r9, r0, lsl r0
     e28:	40093000 	andmi	r3, r9, r0
     e2c:	40091040 	andmi	r1, r9, r0, asr #32
     e30:	43220420 			; <UNDEFINED> instruction: 0x43220420
     e34:	40091018 	andmi	r1, r9, r8, lsl r0
     e38:	43040188 	movwmi	r0, #16776	; 0x4188
     e3c:	43220200 			; <UNDEFINED> instruction: 0x43220200
     e40:	40082224 	andmi	r2, r8, r4, lsr #4

00000e44 <halt>:
	cli_tim;
     e44:	2400      	movs	r4, #0
void halt (void) {
     e46:	b508      	push	{r3, lr}
	cli_tim;
     e48:	4b07      	ldr	r3, [pc, #28]	; (e68 <halt+0x24>)
	diag ("PicOS halted");
     e4a:	4808      	ldr	r0, [pc, #32]	; (e6c <halt+0x28>)
	cli_tim;
     e4c:	601c      	str	r4, [r3, #0]
	diag ("PicOS halted");
     e4e:	f000 fb1f 	bl	1490 <diag>
	mdelay (500);
     e52:	f44f 70fa 	mov.w	r0, #500	; 0x1f4
     e56:	f7ff fab7 	bl	3c8 <mdelay>
	setpowermode (2);
     e5a:	2002      	movs	r0, #2
     e5c:	f7ff feb4 	bl	bc8 <setpowermode>
	__PCB = NULL;
     e60:	4b03      	ldr	r3, [pc, #12]	; (e70 <halt+0x2c>)
     e62:	601c      	str	r4, [r3, #0]
	release;
     e64:	f7ff fec2 	bl	bec <__pi_release>
     e68:	43240280 			; <UNDEFINED> instruction: 0x43240280
     e6c:	00004229 	andeq	r4, r0, r9, lsr #4
     e70:	20000120 	andcs	r0, r0, r0, lsr #2

00000e74 <main>:

#include "scheduler.h"

}

int main (void) {
     e74:	b510      	push	{r4, lr}
     e76:	4b11      	ldr	r3, [pc, #68]	; (ebc <main+0x48>)

#if	STACK_GUARD
	{
		register sint i;
		for (i = 0; i < (STACK_SIZE / sizeof (lword)) - 16; i++)
			*((((lword*)STACK_END) - 1) + i) = STACK_SENTINEL;
     e78:	4911      	ldr	r1, [pc, #68]	; (ec0 <main+0x4c>)
		for (i = 0; i < (STACK_SIZE / sizeof (lword)) - 16; i++)
     e7a:	4a12      	ldr	r2, [pc, #72]	; (ec4 <main+0x50>)
			*((((lword*)STACK_END) - 1) + i) = STACK_SENTINEL;
     e7c:	f843 1b04 	str.w	r1, [r3], #4
		for (i = 0; i < (STACK_SIZE / sizeof (lword)) - 16; i++)
     e80:	4293      	cmp	r3, r2
     e82:	d1fb      	bne.n	e7c <main+0x8>
#if	TCV_PRESENT
	tcv_init ();
#endif

	// For standby mode wakeup on timer
	AONEventMcuWakeUpSet (AON_EVENT_MCU_EVENT0, AON_EVENT_RTC_COMB_DLY);
     e84:	4c10      	ldr	r4, [pc, #64]	; (ec8 <main+0x54>)
	system_init ();
     e86:	f7ff fdc3 	bl	a10 <system_init>
	tcv_init ();
     e8a:	f000 fecd 	bl	1c28 <tcv_init>
	AONEventMcuWakeUpSet (AON_EVENT_MCU_EVENT0, AON_EVENT_RTC_COMB_DLY);
     e8e:	6823      	ldr	r3, [r4, #0]
     e90:	2129      	movs	r1, #41	; 0x29
     e92:	2000      	movs	r0, #0
     e94:	681b      	ldr	r3, [r3, #0]
     e96:	4798      	blx	r3
	// Edge on any I/O, will it take care of UART? No, of course not!
	// But it does work for buttons.
	AONEventMcuWakeUpSet (AON_EVENT_MCU_EVENT1, AON_EVENT_IO);
     e98:	6823      	ldr	r3, [r4, #0]
     e9a:	2120      	movs	r1, #32
     e9c:	681b      	ldr	r3, [r3, #0]
     e9e:	2001      	movs	r0, #1
     ea0:	4798      	blx	r3

	// Assume root process identity
	__pi_curr = (__pi_pcb_t*) fork (root, 0);
     ea2:	2100      	movs	r1, #0
     ea4:	4809      	ldr	r0, [pc, #36]	; (ecc <main+0x58>)
     ea6:	f000 facd 	bl	1444 <__pi_fork>
     eaa:	4b09      	ldr	r3, [pc, #36]	; (ed0 <main+0x5c>)
	// Delay root startup for 16 msec to make sure that the drivers go
	// first
	delay (16, 0);
     eac:	2100      	movs	r1, #0
	__pi_curr = (__pi_pcb_t*) fork (root, 0);
     eae:	6018      	str	r0, [r3, #0]
	delay (16, 0);
     eb0:	2010      	movs	r0, #16
     eb2:	f000 f951 	bl	1158 <delay>
     eb6:	b662      	cpsie	i

	sti;

	__pi_release ();
     eb8:	f7ff fe98 	bl	bec <__pi_release>
     ebc:	20004bfc 	strdcs	r4, [r0], -ip
     ec0:	a778b779 			; <UNDEFINED> instruction: 0xa778b779
     ec4:	20004fbc 			; <UNDEFINED> instruction: 0x20004fbc
     ec8:	10000184 	andne	r0, r0, r4, lsl #3
     ecc:	000001e9 	andeq	r0, r0, r9, ror #3
     ed0:	20000230 	andcs	r0, r0, r0, lsr r2

00000ed4 <killev>:
	}

	return i->Timer - __pi_old;
}

static void killev (__pi_pcb_t *pid) {
     ed4:	b570      	push	{r4, r5, r6, lr}
	aword wfun;
	int j;
	__pi_pcb_t *i;

	wfun = (aword)(pid->code);
	for_all_tasks (i) {
     ed6:	4b0d      	ldr	r3, [pc, #52]	; (f0c <killev+0x38>)
	wfun = (aword)(pid->code);
     ed8:	6846      	ldr	r6, [r0, #4]
	for_all_tasks (i) {
     eda:	681a      	ldr	r2, [r3, #0]
     edc:	b1aa      	cbz	r2, f0a <killev+0x36>
		for (j = 0; j < nevents (i); j++) {
     ede:	4614      	mov	r4, r2
     ee0:	f834 1b10 	ldrh.w	r1, [r4], #16
     ee4:	2300      	movs	r3, #0
     ee6:	f001 0107 	and.w	r1, r1, #7
     eea:	e001      	b.n	ef0 <killev+0x1c>
			if (i->Events [j] . Event == (aword)pid
			    || i->Events [j] . Event == wfun
     eec:	42b5      	cmp	r5, r6
     eee:	d006      	beq.n	efe <killev+0x2a>
		for (j = 0; j < nevents (i); j++) {
     ef0:	4299      	cmp	r1, r3
     ef2:	dd08      	ble.n	f06 <killev+0x32>
			if (i->Events [j] . Event == (aword)pid
     ef4:	f854 5033 	ldr.w	r5, [r4, r3, lsl #3]
     ef8:	3301      	adds	r3, #1
     efa:	42a8      	cmp	r0, r5
     efc:	d1f6      	bne.n	eec <killev+0x18>
			    ) {
				wakeupev (i, j);
     efe:	eb02 03c3 	add.w	r3, r2, r3, lsl #3
     f02:	889b      	ldrh	r3, [r3, #4]
     f04:	8013      	strh	r3, [r2, #0]
	for_all_tasks (i) {
     f06:	6ad2      	ldr	r2, [r2, #44]	; 0x2c
     f08:	e7e8      	b.n	edc <killev+0x8>
				break;
			}
		}
	}
}
     f0a:	bd70      	pop	{r4, r5, r6, pc}
     f0c:	20000120 	andcs	r0, r0, r0, lsr #2

00000f10 <qfree>:
	// volatile
#endif
	aword *chunk, *cc;

	cc = (aword*)(mpools + MA_NP);
	for (chunk = mpools [MA_NP]; chunk != NULL; chunk = m_nextp (chunk)) {
     f10:	4a1d      	ldr	r2, [pc, #116]	; (f88 <qfree+0x78>)
static void qfree (aword *ch) {
     f12:	b530      	push	{r4, r5, lr}
     f14:	4614      	mov	r4, r2
	for (chunk = mpools [MA_NP]; chunk != NULL; chunk = m_nextp (chunk)) {
     f16:	6813      	ldr	r3, [r2, #0]
     f18:	b93b      	cbnz	r3, f2a <qfree+0x1a>
		}
	}

	/* Insert */
	cc = (aword*)(mpools + MA_NP);
	for (chunk = mpools [MA_NP]; chunk != NULL; cc = chunk,
     f1a:	6823      	ldr	r3, [r4, #0]
	cc = (aword*)(mpools + MA_NP);
     f1c:	4a1a      	ldr	r2, [pc, #104]	; (f88 <qfree+0x78>)
	for (chunk = mpools [MA_NP]; chunk != NULL; cc = chunk,
     f1e:	bb53      	cbnz	r3, f76 <qfree+0x66>
		chunk = m_nextp (chunk))
			if (m_size (chunk) >= m_size (ch))
				break;

	m_setnextp (ch, chunk);
     f20:	6003      	str	r3, [r0, #0]
	m_setnextp (cc, ch);

#if	MALLOC_SAFE
	m_magic (ch) = MALLOC_MAGIC;
     f22:	4b1a      	ldr	r3, [pc, #104]	; (f8c <qfree+0x7c>)
	m_setnextp (cc, ch);
     f24:	6010      	str	r0, [r2, #0]
	m_magic (ch) = MALLOC_MAGIC;
     f26:	6043      	str	r3, [r0, #4]
#endif

#undef	MA_NP
}
     f28:	bd30      	pop	{r4, r5, pc}
		if (chunk + m_size (chunk) + m_hdrlen == ch) {
     f2a:	e953 1501 	ldrd	r1, r5, [r3, #-4]
     f2e:	3101      	adds	r1, #1
     f30:	eb03 0181 	add.w	r1, r3, r1, lsl #2
     f34:	4288      	cmp	r0, r1
     f36:	d10b      	bne.n	f50 <qfree+0x40>
			m_setnextp (cc, m_nextp (chunk));
     f38:	6015      	str	r5, [r2, #0]
			m_size (chunk) += m_hdrlen + m_size (ch);
     f3a:	f850 0c04 	ldr.w	r0, [r0, #-4]
     f3e:	f853 1c04 	ldr.w	r1, [r3, #-4]
     f42:	4401      	add	r1, r0
     f44:	4618      	mov	r0, r3
     f46:	3101      	adds	r1, #1
     f48:	f843 1c04 	str.w	r1, [r3, #-4]
	for (chunk = mpools [MA_NP]; chunk != NULL; chunk = m_nextp (chunk)) {
     f4c:	681b      	ldr	r3, [r3, #0]
     f4e:	e7e3      	b.n	f18 <qfree+0x8>
		} else if (ch + m_size (ch) + m_hdrlen == chunk) {
     f50:	f850 1c04 	ldr.w	r1, [r0, #-4]
     f54:	3101      	adds	r1, #1
     f56:	eb00 0181 	add.w	r1, r0, r1, lsl #2
     f5a:	428b      	cmp	r3, r1
			m_setnextp (cc, m_nextp (chunk));
     f5c:	bf03      	ittte	eq
     f5e:	6015      	streq	r5, [r2, #0]
			m_size (ch) += m_hdrlen + m_size (chunk);
     f60:	f850 1c04 	ldreq.w	r1, [r0, #-4]
     f64:	f853 5c04 	ldreq.w	r5, [r3, #-4]
     f68:	461a      	movne	r2, r3
     f6a:	bf02      	ittt	eq
     f6c:	1949      	addeq	r1, r1, r5
     f6e:	3101      	addeq	r1, #1
     f70:	f840 1c04 	streq.w	r1, [r0, #-4]
     f74:	e7ea      	b.n	f4c <qfree+0x3c>
			if (m_size (chunk) >= m_size (ch))
     f76:	f853 4c04 	ldr.w	r4, [r3, #-4]
     f7a:	f850 1c04 	ldr.w	r1, [r0, #-4]
     f7e:	428c      	cmp	r4, r1
     f80:	d2ce      	bcs.n	f20 <qfree+0x10>
		chunk = m_nextp (chunk))
     f82:	461a      	mov	r2, r3
     f84:	681b      	ldr	r3, [r3, #0]
     f86:	e7ca      	b.n	f1e <qfree+0xe>
     f88:	20000134 	andcs	r0, r0, r4, lsr r1
     f8c:	deafdeaf 	cdple	14, 10, cr13, cr15, cr15, {5}

00000f90 <dgout>:
    return((HWREG(ui32Base + UART_O_FR) & UART_FR_BUSY) ?
     f90:	4a03      	ldr	r2, [pc, #12]	; (fa0 <dgout+0x10>)
     f92:	6813      	ldr	r3, [r2, #0]

#if	dbg_level != 0 || DIAG_MESSAGES

static void dgout (word c) {

	diag_wait (a);
     f94:	071b      	lsls	r3, r3, #28
     f96:	d4fc      	bmi.n	f92 <dgout+0x2>
	diag_wchar (c, a);
     f98:	4b02      	ldr	r3, [pc, #8]	; (fa4 <dgout+0x14>)
     f9a:	b2c0      	uxtb	r0, r0
     f9c:	6018      	str	r0, [r3, #0]
}
     f9e:	4770      	bx	lr
     fa0:	40001018 	andmi	r1, r0, r8, lsl r0
     fa4:	40001000 	andmi	r1, r0, r0

00000fa8 <__pi_badstate>:
	syserror (ESTATE, "state");
     fa8:	2007      	movs	r0, #7
void __pi_badstate (void) {
     faa:	b508      	push	{r3, lr}
	syserror (ESTATE, "state");
     fac:	4901      	ldr	r1, [pc, #4]	; (fb4 <__pi_badstate+0xc>)
     fae:	f7ff fa5f 	bl	470 <__pi_syserror>
     fb2:	bf00      	nop
     fb4:	0000427c 	andeq	r4, r0, ip, ror r2

00000fb8 <utimer_add>:
	for (i = 0; i < MAX_UTIMERS; i++)
     fb8:	4a08      	ldr	r2, [pc, #32]	; (fdc <utimer_add+0x24>)
void utimer_add (address ut) {
     fba:	4603      	mov	r3, r0
     fbc:	4611      	mov	r1, r2
	for (i = 0; i < MAX_UTIMERS; i++)
     fbe:	2000      	movs	r0, #0
void utimer_add (address ut) {
     fc0:	b510      	push	{r4, lr}
		if (__pi_utims [i] == NULL)
     fc2:	f852 4b04 	ldr.w	r4, [r2], #4
     fc6:	b12c      	cbz	r4, fd4 <utimer_add+0x1c>
	for (i = 0; i < MAX_UTIMERS; i++)
     fc8:	3001      	adds	r0, #1
     fca:	2804      	cmp	r0, #4
     fcc:	d1f9      	bne.n	fc2 <utimer_add+0xa>
		syserror (ERESOURCE, "ut a");
     fce:	4904      	ldr	r1, [pc, #16]	; (fe0 <utimer_add+0x28>)
     fd0:	f7ff fa4e 	bl	470 <__pi_syserror>
	__pi_utims [i] = ut;
     fd4:	f841 3020 	str.w	r3, [r1, r0, lsl #2]
}
     fd8:	bd10      	pop	{r4, pc}
     fda:	bf00      	nop
     fdc:	20000220 	andcs	r0, r0, r0, lsr #4
     fe0:	00004282 	andeq	r4, r0, r2, lsl #5

00000fe4 <__pi_utimer_set>:
	*t = v;
     fe4:	8001      	strh	r1, [r0, #0]
	TCI_RUN_AUXILIARY_TIMER;
     fe6:	f7ff ba8d 	b.w	504 <tci_run_auxiliary_timer>
	...

00000fec <update_n_wake>:
void update_n_wake (word min, Boolean force) {
     fec:	b5f8      	push	{r3, r4, r5, r6, r7, lr}
     fee:	4604      	mov	r4, r0
	if (TCI_UPDATE_DELAY_TICKS (force))
     ff0:	4608      	mov	r0, r1
     ff2:	f7ff fb25 	bl	640 <tci_update_delay_ticks>
     ff6:	2800      	cmp	r0, #0
     ff8:	d154      	bne.n	10a4 <update_n_wake+0xb8>
	if (twakecnd (__pi_old, znew, __pi_mintk)) {
     ffa:	4b2b      	ldr	r3, [pc, #172]	; (10a8 <update_n_wake+0xbc>)
     ffc:	4d2b      	ldr	r5, [pc, #172]	; (10ac <update_n_wake+0xc0>)
     ffe:	8819      	ldrh	r1, [r3, #0]
    1000:	882a      	ldrh	r2, [r5, #0]
    1002:	b289      	uxth	r1, r1
    1004:	428a      	cmp	r2, r1
    1006:	492a      	ldr	r1, [pc, #168]	; (10b0 <update_n_wake+0xc4>)
    1008:	d803      	bhi.n	1012 <update_n_wake+0x26>
    100a:	8808      	ldrh	r0, [r1, #0]
    100c:	b280      	uxth	r0, r0
    100e:	4282      	cmp	r2, r0
    1010:	d20d      	bcs.n	102e <update_n_wake+0x42>
    1012:	881e      	ldrh	r6, [r3, #0]
    1014:	8808      	ldrh	r0, [r1, #0]
    1016:	b2b6      	uxth	r6, r6
    1018:	b280      	uxth	r0, r0
    101a:	4286      	cmp	r6, r0
    101c:	d236      	bcs.n	108c <update_n_wake+0xa0>
    101e:	8818      	ldrh	r0, [r3, #0]
    1020:	b280      	uxth	r0, r0
    1022:	4282      	cmp	r2, r0
    1024:	d903      	bls.n	102e <update_n_wake+0x42>
    1026:	8808      	ldrh	r0, [r1, #0]
    1028:	b280      	uxth	r0, r0
    102a:	4282      	cmp	r2, r0
    102c:	d32e      	bcc.n	108c <update_n_wake+0xa0>
		for_all_tasks (i) {
    102e:	4a21      	ldr	r2, [pc, #132]	; (10b4 <update_n_wake+0xc8>)
    1030:	6810      	ldr	r0, [r2, #0]
    1032:	b918      	cbnz	r0, 103c <update_n_wake+0x50>
	__pi_mintk = znew + min;
    1034:	8818      	ldrh	r0, [r3, #0]
    1036:	4404      	add	r4, r0
    1038:	802c      	strh	r4, [r5, #0]
    103a:	e02c      	b.n	1096 <update_n_wake+0xaa>
			if (!twaiting (i))
    103c:	8806      	ldrh	r6, [r0, #0]
    103e:	0732      	lsls	r2, r6, #28
    1040:	d51b      	bpl.n	107a <update_n_wake+0x8e>
			if (twakecnd (__pi_old, znew, i->Timer)) {
    1042:	881f      	ldrh	r7, [r3, #0]
    1044:	8842      	ldrh	r2, [r0, #2]
    1046:	b2bf      	uxth	r7, r7
    1048:	42ba      	cmp	r2, r7
    104a:	d803      	bhi.n	1054 <update_n_wake+0x68>
    104c:	880f      	ldrh	r7, [r1, #0]
    104e:	b2bf      	uxth	r7, r7
    1050:	42ba      	cmp	r2, r7
    1052:	d20f      	bcs.n	1074 <update_n_wake+0x88>
    1054:	f8b3 c000 	ldrh.w	ip, [r3]
    1058:	880f      	ldrh	r7, [r1, #0]
    105a:	fa1f fc8c 	uxth.w	ip, ip
    105e:	b2bf      	uxth	r7, r7
    1060:	45bc      	cmp	ip, r7
    1062:	d20c      	bcs.n	107e <update_n_wake+0x92>
    1064:	881f      	ldrh	r7, [r3, #0]
    1066:	b2bf      	uxth	r7, r7
    1068:	42ba      	cmp	r2, r7
    106a:	d903      	bls.n	1074 <update_n_wake+0x88>
    106c:	880f      	ldrh	r7, [r1, #0]
    106e:	b2bf      	uxth	r7, r7
    1070:	42ba      	cmp	r2, r7
    1072:	d304      	bcc.n	107e <update_n_wake+0x92>
				wakeuptm (i);
    1074:	f026 060f 	bic.w	r6, r6, #15
    1078:	8006      	strh	r6, [r0, #0]
		for_all_tasks (i) {
    107a:	6ac0      	ldr	r0, [r0, #44]	; 0x2c
    107c:	e7d9      	b.n	1032 <update_n_wake+0x46>
				d = i->Timer - znew;
    107e:	881e      	ldrh	r6, [r3, #0]
    1080:	1b92      	subs	r2, r2, r6
    1082:	b292      	uxth	r2, r2
    1084:	4294      	cmp	r4, r2
    1086:	bf28      	it	cs
    1088:	4614      	movcs	r4, r2
    108a:	e7f6      	b.n	107a <update_n_wake+0x8e>
		if ((word)(__pi_mintk - znew) < min) 
    108c:	8818      	ldrh	r0, [r3, #0]
    108e:	1a12      	subs	r2, r2, r0
    1090:	b292      	uxth	r2, r2
    1092:	4294      	cmp	r4, r2
    1094:	d9ce      	bls.n	1034 <update_n_wake+0x48>
	__pi_old = znew;
    1096:	881b      	ldrh	r3, [r3, #0]
    1098:	b29b      	uxth	r3, r3
    109a:	800b      	strh	r3, [r1, #0]
}
    109c:	e8bd 40f8 	ldmia.w	sp!, {r3, r4, r5, r6, r7, lr}
	TCI_RUN_DELAY_TIMER;
    10a0:	f7ff ba10 	b.w	4c4 <tci_run_delay_timer>
}
    10a4:	bdf8      	pop	{r3, r4, r5, r6, r7, pc}
    10a6:	bf00      	nop
    10a8:	2000021c 	andcs	r0, r0, ip, lsl r2
    10ac:	20000210 	andcs	r0, r0, r0, lsl r2
    10b0:	20000212 	andcs	r0, r0, r2, lsl r2
    10b4:	20000120 	andcs	r0, r0, r0, lsr #2

000010b8 <proceed>:
void proceed (word state) {
    10b8:	b508      	push	{r3, lr}
	prcdstate (__pi_curr, state);
    10ba:	4b03      	ldr	r3, [pc, #12]	; (10c8 <proceed+0x10>)
    10bc:	0100      	lsls	r0, r0, #4
    10be:	681b      	ldr	r3, [r3, #0]
    10c0:	8018      	strh	r0, [r3, #0]
	release;
    10c2:	f7ff fd93 	bl	bec <__pi_release>
    10c6:	bf00      	nop
    10c8:	20000230 	andcs	r0, r0, r0, lsr r2

000010cc <__pi_wait>:
void __pi_wait (aword event, word state) {
    10cc:	b510      	push	{r4, lr}
	sint j = nevents (__pi_curr);
    10ce:	4b0a      	ldr	r3, [pc, #40]	; (10f8 <__pi_wait+0x2c>)
    10d0:	681c      	ldr	r4, [r3, #0]
    10d2:	8823      	ldrh	r3, [r4, #0]
	if (j >= MAX_EVENTS_PER_TASK)
    10d4:	f013 0f04 	tst.w	r3, #4
    10d8:	f003 0207 	and.w	r2, r3, #7
    10dc:	d003      	beq.n	10e6 <__pi_wait+0x1a>
		syserror (ENEVENTS, "sw");
    10de:	2005      	movs	r0, #5
    10e0:	4906      	ldr	r1, [pc, #24]	; (10fc <__pi_wait+0x30>)
    10e2:	f7ff f9c5 	bl	470 <__pi_syserror>
	setestate (__pi_curr->Events [j], state, event);
    10e6:	eb04 02c2 	add.w	r2, r4, r2, lsl #3
    10ea:	0109      	lsls	r1, r1, #4
	incwait (__pi_curr);
    10ec:	3301      	adds	r3, #1
	setestate (__pi_curr->Events [j], state, event);
    10ee:	8191      	strh	r1, [r2, #12]
    10f0:	6110      	str	r0, [r2, #16]
	incwait (__pi_curr);
    10f2:	8023      	strh	r3, [r4, #0]
}
    10f4:	bd10      	pop	{r4, pc}
    10f6:	bf00      	nop
    10f8:	20000230 	andcs	r0, r0, r0, lsr r2
    10fc:	00004287 	andeq	r4, r0, r7, lsl #5

00001100 <__pi_trigger>:
void __pi_trigger (aword event) {
    1100:	b530      	push	{r4, r5, lr}
	for_all_tasks (i) {
    1102:	4b0b      	ldr	r3, [pc, #44]	; (1130 <__pi_trigger+0x30>)
    1104:	681a      	ldr	r2, [r3, #0]
    1106:	b192      	cbz	r2, 112e <__pi_trigger+0x2e>
		for (j = 0; j < nevents (i); j++) {
    1108:	4614      	mov	r4, r2
    110a:	2300      	movs	r3, #0
    110c:	f834 1b10 	ldrh.w	r1, [r4], #16
    1110:	f001 0107 	and.w	r1, r1, #7
    1114:	4299      	cmp	r1, r3
    1116:	dd08      	ble.n	112a <__pi_trigger+0x2a>
			if (i->Events [j] . Event == event) {
    1118:	f854 5033 	ldr.w	r5, [r4, r3, lsl #3]
    111c:	3301      	adds	r3, #1
    111e:	4285      	cmp	r5, r0
    1120:	d1f8      	bne.n	1114 <__pi_trigger+0x14>
				wakeupev (i, j);
    1122:	eb02 03c3 	add.w	r3, r2, r3, lsl #3
    1126:	889b      	ldrh	r3, [r3, #4]
    1128:	8013      	strh	r3, [r2, #0]
	for_all_tasks (i) {
    112a:	6ad2      	ldr	r2, [r2, #44]	; 0x2c
    112c:	e7eb      	b.n	1106 <__pi_trigger+0x6>
}
    112e:	bd30      	pop	{r4, r5, pc}
    1130:	20000120 	andcs	r0, r0, r0, lsr #2

00001134 <__pi_join>:
aword __pi_join (aword pid, word st) {
    1134:	b510      	push	{r4, lr}
    1136:	4604      	mov	r4, r0
	for_all_tasks (i) {
    1138:	4b06      	ldr	r3, [pc, #24]	; (1154 <__pi_join+0x20>)
    113a:	681b      	ldr	r3, [r3, #0]
    113c:	b90b      	cbnz	r3, 1142 <__pi_join+0xe>
	return 0;
    113e:	461c      	mov	r4, r3
    1140:	e004      	b.n	114c <__pi_join+0x18>
		if ((aword)i == pid) {
    1142:	42a3      	cmp	r3, r4
    1144:	d104      	bne.n	1150 <__pi_join+0x1c>
			__pi_wait (pid, st);
    1146:	4620      	mov	r0, r4
    1148:	f7ff ffc0 	bl	10cc <__pi_wait>
}
    114c:	4620      	mov	r0, r4
    114e:	bd10      	pop	{r4, pc}
	for_all_tasks (i) {
    1150:	6adb      	ldr	r3, [r3, #44]	; 0x2c
    1152:	e7f3      	b.n	113c <__pi_join+0x8>
    1154:	20000120 	andcs	r0, r0, r0, lsr #2

00001158 <delay>:
void delay (word d, word state) {
    1158:	b538      	push	{r3, r4, r5, lr}
    115a:	4604      	mov	r4, r0
	settstate (__pi_curr, state);
    115c:	4d0a      	ldr	r5, [pc, #40]	; (1188 <delay+0x30>)
    115e:	682a      	ldr	r2, [r5, #0]
    1160:	8813      	ldrh	r3, [r2, #0]
    1162:	f003 0307 	and.w	r3, r3, #7
    1166:	ea43 1301 	orr.w	r3, r3, r1, lsl #4
    116a:	8013      	strh	r3, [r2, #0]
	update_n_wake (d, YES);
    116c:	2101      	movs	r1, #1
    116e:	f7ff ff3d 	bl	fec <update_n_wake>
	__pi_curr->Timer = __pi_old + d;
    1172:	4b06      	ldr	r3, [pc, #24]	; (118c <delay+0x34>)
    1174:	8818      	ldrh	r0, [r3, #0]
    1176:	682b      	ldr	r3, [r5, #0]
    1178:	4404      	add	r4, r0
    117a:	805c      	strh	r4, [r3, #2]
	inctimer (__pi_curr);
    117c:	682a      	ldr	r2, [r5, #0]
    117e:	8813      	ldrh	r3, [r2, #0]
    1180:	f043 0308 	orr.w	r3, r3, #8
    1184:	8013      	strh	r3, [r2, #0]
}
    1186:	bd38      	pop	{r3, r4, r5, pc}
    1188:	20000230 	andcs	r0, r0, r0, lsr r2
    118c:	20000212 	andcs	r0, r0, r2, lsl r2

00001190 <running>:
	if (fun == NULL)
    1190:	4603      	mov	r3, r0
    1192:	b910      	cbnz	r0, 119a <running+0xa>
		return (int) __pi_curr;
    1194:	4b05      	ldr	r3, [pc, #20]	; (11ac <running+0x1c>)
    1196:	6818      	ldr	r0, [r3, #0]
    1198:	4770      	bx	lr
	for_all_tasks (i)
    119a:	4a05      	ldr	r2, [pc, #20]	; (11b0 <running+0x20>)
    119c:	6810      	ldr	r0, [r2, #0]
    119e:	b900      	cbnz	r0, 11a2 <running+0x12>
}
    11a0:	4770      	bx	lr
		if (i->code == fun)
    11a2:	6842      	ldr	r2, [r0, #4]
    11a4:	429a      	cmp	r2, r3
    11a6:	d0fb      	beq.n	11a0 <running+0x10>
	for_all_tasks (i)
    11a8:	6ac0      	ldr	r0, [r0, #44]	; 0x2c
    11aa:	e7f8      	b.n	119e <running+0xe>
    11ac:	20000230 	andcs	r0, r0, r0, lsr r2
    11b0:	20000120 	andcs	r0, r0, r0, lsr #2

000011b4 <__pi_strlen>:
int __pi_strlen (const char *s) {
    11b4:	4603      	mov	r3, r0
	for (i = 0; *(s+i) != '\0'; i++);
    11b6:	2000      	movs	r0, #0
    11b8:	5c1a      	ldrb	r2, [r3, r0]
    11ba:	b902      	cbnz	r2, 11be <__pi_strlen+0xa>
}
    11bc:	4770      	bx	lr
	for (i = 0; *(s+i) != '\0'; i++);
    11be:	3001      	adds	r0, #1
    11c0:	e7fa      	b.n	11b8 <__pi_strlen+0x4>

000011c2 <__pi_strcpy>:
	while ((Boolean)(*d++ = *s++));
    11c2:	3801      	subs	r0, #1
    11c4:	f811 3b01 	ldrb.w	r3, [r1], #1
    11c8:	f800 3f01 	strb.w	r3, [r0, #1]!
    11cc:	2b00      	cmp	r3, #0
    11ce:	d1f9      	bne.n	11c4 <__pi_strcpy+0x2>
}
    11d0:	4770      	bx	lr

000011d2 <__pi_memcpy>:
	while (n--)
    11d2:	3801      	subs	r0, #1
    11d4:	440a      	add	r2, r1
    11d6:	4291      	cmp	r1, r2
    11d8:	d100      	bne.n	11dc <__pi_memcpy+0xa>
}
    11da:	4770      	bx	lr
		*dest++ = *src++;
    11dc:	f811 3b01 	ldrb.w	r3, [r1], #1
    11e0:	f800 3f01 	strb.w	r3, [r0, #1]!
    11e4:	e7f7      	b.n	11d6 <__pi_memcpy+0x4>

000011e6 <__pi_memset>:
	while (n--)
    11e6:	4402      	add	r2, r0
    11e8:	4290      	cmp	r0, r2
    11ea:	d100      	bne.n	11ee <__pi_memset+0x8>
}
    11ec:	4770      	bx	lr
		*dest++ = c;
    11ee:	f800 1b01 	strb.w	r1, [r0], #1
    11f2:	e7f9      	b.n	11e8 <__pi_memset+0x2>

000011f4 <adddevfunc>:
void adddevfunc (devreqfun_t rf, int loc) {
    11f4:	b508      	push	{r3, lr}
	if (loc < 0 || loc >= MAX_DEVICES)
    11f6:	b119      	cbz	r1, 1200 <adddevfunc+0xc>
		syserror (EREQPAR, "addv");
    11f8:	2003      	movs	r0, #3
    11fa:	4905      	ldr	r1, [pc, #20]	; (1210 <adddevfunc+0x1c>)
		syserror (ERESOURCE, "addv");
    11fc:	f7ff f938 	bl	470 <__pi_syserror>
	if (ioreq [loc] != NULL)
    1200:	4b04      	ldr	r3, [pc, #16]	; (1214 <adddevfunc+0x20>)
    1202:	681a      	ldr	r2, [r3, #0]
    1204:	b112      	cbz	r2, 120c <adddevfunc+0x18>
		syserror (ERESOURCE, "addv");
    1206:	2004      	movs	r0, #4
    1208:	4901      	ldr	r1, [pc, #4]	; (1210 <adddevfunc+0x1c>)
    120a:	e7f7      	b.n	11fc <adddevfunc+0x8>
	ioreq [loc] = rf;
    120c:	6018      	str	r0, [r3, #0]
}
    120e:	bd08      	pop	{r3, pc}
    1210:	0000428a 	andeq	r4, r0, sl, lsl #5
    1214:	20000124 	andcs	r0, r0, r4, lsr #2

00001218 <io>:
sint io (word retry, word dev, word operation, char *buf, word len) {
    1218:	e92d 43f8 	stmdb	sp!, {r3, r4, r5, r6, r7, r8, r9, lr}
    121c:	4604      	mov	r4, r0
    121e:	4616      	mov	r6, r2
    1220:	461d      	mov	r5, r3
    1222:	f8bd 8020 	ldrh.w	r8, [sp, #32]
	if (dev >= MAX_DEVICES || ioreq [dev] == NULL)
    1226:	b921      	cbnz	r1, 1232 <io+0x1a>
    1228:	f8df 9084 	ldr.w	r9, [pc, #132]	; 12b0 <io+0x98>
    122c:	f8d9 3000 	ldr.w	r3, [r9]
    1230:	b91b      	cbnz	r3, 123a <io+0x22>
		syserror (ENODEVICE, "io");
    1232:	2001      	movs	r0, #1
    1234:	491d      	ldr	r1, [pc, #116]	; (12ac <io+0x94>)
    1236:	f7ff f91b 	bl	470 <__pi_syserror>
	if (len == 0)
    123a:	f1b8 0f00 	cmp.w	r8, #0
    123e:	d028      	beq.n	1292 <io+0x7a>
	ret = (ioreq [dev]) (operation, buf, len);
    1240:	4642      	mov	r2, r8
    1242:	4629      	mov	r1, r5
    1244:	4630      	mov	r0, r6
    1246:	4798      	blx	r3
	if (ret >= 0)
    1248:	2800      	cmp	r0, #0
    124a:	da23      	bge.n	1294 <io+0x7c>
	if (ret == -1) {
    124c:	1c41      	adds	r1, r0, #1
    124e:	f64f 73ff 	movw	r3, #65535	; 0xffff
    1252:	d108      	bne.n	1266 <io+0x4e>
		if (retry == WNONE)
    1254:	429c      	cmp	r4, r3
    1256:	d01c      	beq.n	1292 <io+0x7a>
		iowait (dev, operation, retry);
    1258:	4621      	mov	r1, r4
    125a:	f5a6 7081 	sub.w	r0, r6, #258	; 0x102
    125e:	f7ff ff35 	bl	10cc <__pi_wait>
			release;
    1262:	f7ff fcc3 	bl	bec <__pi_release>
	if (ret == -2) {
    1266:	1c82      	adds	r2, r0, #2
    1268:	d116      	bne.n	1298 <io+0x80>
		if (retry != WNONE) {
    126a:	429c      	cmp	r4, r3
    126c:	f8d9 9000 	ldr.w	r9, [r9]
    1270:	d00a      	beq.n	1288 <io+0x70>
			iowait (dev, operation, retry);
    1272:	4621      	mov	r1, r4
    1274:	f5a6 7081 	sub.w	r0, r6, #258	; 0x102
    1278:	f7ff ff28 	bl	10cc <__pi_wait>
			(ioreq [dev]) (NONE, buf, len);
    127c:	4642      	mov	r2, r8
    127e:	4629      	mov	r1, r5
    1280:	f04f 30ff 	mov.w	r0, #4294967295	; 0xffffffff
    1284:	47c8      	blx	r9
    1286:	e7ec      	b.n	1262 <io+0x4a>
		(ioreq [dev]) (NONE, buf, len);
    1288:	4642      	mov	r2, r8
    128a:	4629      	mov	r1, r5
    128c:	f04f 30ff 	mov.w	r0, #4294967295	; 0xffffffff
    1290:	47c8      	blx	r9
		return 0;
    1292:	2000      	movs	r0, #0
}
    1294:	e8bd 83f8 	ldmia.w	sp!, {r3, r4, r5, r6, r7, r8, r9, pc}
	if (retry != WNONE) {
    1298:	429c      	cmp	r4, r3
    129a:	d0fa      	beq.n	1292 <io+0x7a>
		delay (-ret - 2, retry);
    129c:	f5c0 407f 	rsb	r0, r0, #65280	; 0xff00
    12a0:	30fe      	adds	r0, #254	; 0xfe
    12a2:	4621      	mov	r1, r4
    12a4:	b280      	uxth	r0, r0
    12a6:	f7ff ff57 	bl	1158 <delay>
		release;
    12aa:	e7da      	b.n	1262 <io+0x4a>
    12ac:	0000428f 	andeq	r4, r0, pc, lsl #5
    12b0:	20000124 	andcs	r0, r0, r4, lsr #2

000012b4 <__pi_malloc_init>:
	if ((mlen = (aword)MALLOC_LENGTH) < 256)
    12b4:	4a0d      	ldr	r2, [pc, #52]	; (12ec <__pi_malloc_init+0x38>)
void __pi_malloc_init () {
    12b6:	b508      	push	{r3, lr}
	if ((mlen = (aword)MALLOC_LENGTH) < 256)
    12b8:	f1c2 5300 	rsb	r3, r2, #536870912	; 0x20000000
    12bc:	f503 4398 	add.w	r3, r3, #19456	; 0x4c00
    12c0:	089b      	lsrs	r3, r3, #2
    12c2:	1e59      	subs	r1, r3, #1
    12c4:	29ff      	cmp	r1, #255	; 0xff
    12c6:	d803      	bhi.n	12d0 <__pi_malloc_init+0x1c>
		syserror (ERESOURCE, "mal1");
    12c8:	2004      	movs	r0, #4
    12ca:	4909      	ldr	r1, [pc, #36]	; (12f0 <__pi_malloc_init+0x3c>)
    12cc:	f7ff f8d0 	bl	470 <__pi_syserror>
	mpools [0] = ((aword*)MALLOC_START) + m_hdrlen;
    12d0:	4908      	ldr	r1, [pc, #32]	; (12f4 <__pi_malloc_init+0x40>)
    12d2:	1d10      	adds	r0, r2, #4
    12d4:	6008      	str	r0, [r1, #0]
	m_magic (mpools [0]) = MALLOC_MAGIC;
    12d6:	2000      	movs	r0, #0
    12d8:	4907      	ldr	r1, [pc, #28]	; (12f8 <__pi_malloc_init+0x44>)
	m_size (mpools [0]) = mlen - m_hdrlen;
    12da:	3b02      	subs	r3, #2
    12dc:	6013      	str	r3, [r2, #0]
	m_magic (mpools [0]) = MALLOC_MAGIC;
    12de:	e9c2 0101 	strd	r0, r1, [r2, #4]
	mnfree [0] = mcfree [0] = m_size (mpools [0]);
    12e2:	4a06      	ldr	r2, [pc, #24]	; (12fc <__pi_malloc_init+0x48>)
    12e4:	6013      	str	r3, [r2, #0]
    12e6:	4a06      	ldr	r2, [pc, #24]	; (1300 <__pi_malloc_init+0x4c>)
    12e8:	6013      	str	r3, [r2, #0]
}
    12ea:	bd08      	pop	{r3, pc}
    12ec:	20000234 	andcs	r0, r0, r4, lsr r2
    12f0:	00004292 	muleq	r0, r2, r2
    12f4:	20000134 	andcs	r0, r0, r4, lsr r1
    12f8:	deafdeaf 	cdple	14, 10, cr13, cr15, cr15, {5}
    12fc:	20000128 	andcs	r0, r0, r8, lsr #2
    1300:	20000130 	andcs	r0, r0, r0, lsr r1

00001304 <__pi_free>:
void __pi_free (aword *ch) {
    1304:	b508      	push	{r3, lr}
	if (ch == NULL)
    1306:	b1c8      	cbz	r0, 133c <__pi_free+0x38>
	if ((m_size (ch) & MALLOC_UMASK) == 0)
    1308:	f850 3c04 	ldr.w	r3, [r0, #-4]
    130c:	2b00      	cmp	r3, #0
    130e:	db03      	blt.n	1318 <__pi_free+0x14>
		syserror (EMALLOC, "malg");
    1310:	2006      	movs	r0, #6
    1312:	490b      	ldr	r1, [pc, #44]	; (1340 <__pi_free+0x3c>)
    1314:	f7ff f8ac 	bl	470 <__pi_syserror>
	mcfree [MA_NP] += m_size (ch);
    1318:	490a      	ldr	r1, [pc, #40]	; (1344 <__pi_free+0x40>)
		m_size (ch) ^= MALLOC_UMASK;
    131a:	f103 4300 	add.w	r3, r3, #2147483648	; 0x80000000
	mcfree [MA_NP] += m_size (ch);
    131e:	680a      	ldr	r2, [r1, #0]
		m_size (ch) ^= MALLOC_UMASK;
    1320:	f840 3c04 	str.w	r3, [r0, #-4]
	mcfree [MA_NP] += m_size (ch);
    1324:	4413      	add	r3, r2
    1326:	600b      	str	r3, [r1, #0]
	QFREE;
    1328:	f7ff fdf2 	bl	f10 <qfree>
	if (mevent [MA_NP] . nwait) {
    132c:	4806      	ldr	r0, [pc, #24]	; (1348 <__pi_free+0x44>)
    132e:	7803      	ldrb	r3, [r0, #0]
    1330:	b123      	cbz	r3, 133c <__pi_free+0x38>
		trigger ((aword)(&(mevent [MA_NP])));
    1332:	f7ff fee5 	bl	1100 <__pi_trigger>
		mevent [MA_NP] . nwait --;
    1336:	7803      	ldrb	r3, [r0, #0]
    1338:	3b01      	subs	r3, #1
    133a:	7003      	strb	r3, [r0, #0]
}
    133c:	bd08      	pop	{r3, pc}
    133e:	bf00      	nop
    1340:	00004297 	muleq	r0, r7, r2
    1344:	20000128 	andcs	r0, r0, r8, lsr #2
    1348:	2000012c 	andcs	r0, r0, ip, lsr #2

0000134c <kill>:
void kill (aword pid) {
    134c:	b510      	push	{r4, lr}
	if (pid == 0)
    134e:	b908      	cbnz	r0, 1354 <kill+0x8>
		pid = (aword) __pi_curr;
    1350:	4b0f      	ldr	r3, [pc, #60]	; (1390 <kill+0x44>)
    1352:	6818      	ldr	r0, [r3, #0]
	j = NULL;
    1354:	2200      	movs	r2, #0
	for_all_tasks (i) {
    1356:	4b0f      	ldr	r3, [pc, #60]	; (1394 <kill+0x48>)
    1358:	681c      	ldr	r4, [r3, #0]
    135a:	b91c      	cbnz	r4, 1364 <kill+0x18>
	syserror (EREQPAR, "kpi");
    135c:	2003      	movs	r0, #3
    135e:	490e      	ldr	r1, [pc, #56]	; (1398 <kill+0x4c>)
    1360:	f7ff f886 	bl	470 <__pi_syserror>
		if ((aword)i == pid) {
    1364:	4284      	cmp	r4, r0
    1366:	6ae1      	ldr	r1, [r4, #44]	; 0x2c
    1368:	d10e      	bne.n	1388 <kill+0x3c>
			if (j == NULL)
    136a:	b95a      	cbnz	r2, 1384 <kill+0x38>
				__PCB = i->Next;
    136c:	6019      	str	r1, [r3, #0]
			killev (i);
    136e:	4620      	mov	r0, r4
    1370:	f7ff fdb0 	bl	ed4 <killev>
			ufree (i);
    1374:	f7ff ffc6 	bl	1304 <__pi_free>
			if (i == __pi_curr)
    1378:	4b05      	ldr	r3, [pc, #20]	; (1390 <kill+0x44>)
    137a:	681b      	ldr	r3, [r3, #0]
    137c:	42a3      	cmp	r3, r4
    137e:	d106      	bne.n	138e <kill+0x42>
				release;
    1380:	f7ff fc34 	bl	bec <__pi_release>
				j->Next = i->Next;
    1384:	62d1      	str	r1, [r2, #44]	; 0x2c
    1386:	e7f2      	b.n	136e <kill+0x22>
    1388:	4622      	mov	r2, r4
    138a:	460c      	mov	r4, r1
    138c:	e7e5      	b.n	135a <kill+0xe>
}
    138e:	bd10      	pop	{r4, pc}
    1390:	20000230 	andcs	r0, r0, r0, lsr r2
    1394:	20000120 	andcs	r0, r0, r0, lsr #2
    1398:	0000429c 	muleq	r0, ip, r2

0000139c <__pi_malloc>:
	if (size < 8)
    139c:	2807      	cmp	r0, #7
		_size = 2;
    139e:	bf98      	it	ls
    13a0:	2002      	movls	r0, #2
aword *__pi_malloc (word size) {
    13a2:	b538      	push	{r3, r4, r5, lr}
	for (chunk = mpools [MA_NP]; chunk != NULL; cc = chunk,
    13a4:	4b21      	ldr	r3, [pc, #132]	; (142c <__pi_malloc+0x90>)
		_size = (((aword)size) + 3) >> 2;
    13a6:	bf88      	it	hi
    13a8:	3003      	addhi	r0, #3
	for (chunk = mpools [MA_NP]; chunk != NULL; cc = chunk,
    13aa:	681c      	ldr	r4, [r3, #0]
		if (m_magic (chunk) != MALLOC_MAGIC)
    13ac:	4920      	ldr	r1, [pc, #128]	; (1430 <__pi_malloc+0x94>)
		_size = (((aword)size) + 3) >> 2;
    13ae:	bf88      	it	hi
    13b0:	0880      	lsrhi	r0, r0, #2
	for (chunk = mpools [MA_NP]; chunk != NULL; cc = chunk,
    13b2:	b94c      	cbnz	r4, 13c8 <__pi_malloc+0x2c>
		if (mevent [MA_NP] . nfail != 255)
    13b4:	4a1f      	ldr	r2, [pc, #124]	; (1434 <__pi_malloc+0x98>)
    13b6:	7853      	ldrb	r3, [r2, #1]
    13b8:	2bff      	cmp	r3, #255	; 0xff
    13ba:	d001      	beq.n	13c0 <__pi_malloc+0x24>
			mevent [MA_NP] . nfail ++;
    13bc:	3301      	adds	r3, #1
    13be:	7053      	strb	r3, [r2, #1]
		mnfree [MA_NP] = 0;
    13c0:	2200      	movs	r2, #0
    13c2:	4b1d      	ldr	r3, [pc, #116]	; (1438 <__pi_malloc+0x9c>)
    13c4:	601a      	str	r2, [r3, #0]
	return chunk;
    13c6:	e02f      	b.n	1428 <__pi_malloc+0x8c>
		if (m_magic (chunk) != MALLOC_MAGIC)
    13c8:	6862      	ldr	r2, [r4, #4]
    13ca:	428a      	cmp	r2, r1
    13cc:	d003      	beq.n	13d6 <__pi_malloc+0x3a>
			syserror (EMALLOC, "malc");
    13ce:	2006      	movs	r0, #6
    13d0:	491a      	ldr	r1, [pc, #104]	; (143c <__pi_malloc+0xa0>)
    13d2:	f7ff f84d 	bl	470 <__pi_syserror>
		if (m_size (chunk) >= _size)
    13d6:	e954 5201 	ldrd	r5, r2, [r4, #-4]
    13da:	4285      	cmp	r5, r0
    13dc:	d202      	bcs.n	13e4 <__pi_malloc+0x48>
		chunk = m_nextp (chunk)) {
    13de:	4623      	mov	r3, r4
    13e0:	4614      	mov	r4, r2
    13e2:	e7e6      	b.n	13b2 <__pi_malloc+0x16>
		m_setnextp (cc, m_nextp (chunk));
    13e4:	601a      	str	r2, [r3, #0]
		if ((waste = m_size (chunk) - _size) > MAX_MALLOC_WASTE) {
    13e6:	f854 3c04 	ldr.w	r3, [r4, #-4]
    13ea:	1a1b      	subs	r3, r3, r0
    13ec:	2b08      	cmp	r3, #8
    13ee:	d909      	bls.n	1404 <__pi_malloc+0x68>
			m_size (chunk) = _size;
    13f0:	f844 0c04 	str.w	r0, [r4, #-4]
			cc = chunk + _size + m_hdrlen;
    13f4:	3001      	adds	r0, #1
    13f6:	eb04 0080 	add.w	r0, r4, r0, lsl #2
			m_size (cc) = waste - m_hdrlen;
    13fa:	3b01      	subs	r3, #1
    13fc:	f840 3c04 	str.w	r3, [r0, #-4]
			QFREE;
    1400:	f7ff fd86 	bl	f10 <qfree>
		mevent [MA_NP] . nfail = 0;
    1404:	2200      	movs	r2, #0
    1406:	4b0b      	ldr	r3, [pc, #44]	; (1434 <__pi_malloc+0x98>)
		mcfree [MA_NP] -= m_size (chunk);
    1408:	490d      	ldr	r1, [pc, #52]	; (1440 <__pi_malloc+0xa4>)
		mevent [MA_NP] . nfail = 0;
    140a:	705a      	strb	r2, [r3, #1]
		mcfree [MA_NP] -= m_size (chunk);
    140c:	f854 2c04 	ldr.w	r2, [r4, #-4]
    1410:	680b      	ldr	r3, [r1, #0]
    1412:	1a9b      	subs	r3, r3, r2
    1414:	600b      	str	r3, [r1, #0]
		if (mnfree [MA_NP] > mcfree [MA_NP])
    1416:	4908      	ldr	r1, [pc, #32]	; (1438 <__pi_malloc+0x9c>)
		m_size (chunk) |= MALLOC_UMASK;
    1418:	f042 4200 	orr.w	r2, r2, #2147483648	; 0x80000000
		if (mnfree [MA_NP] > mcfree [MA_NP])
    141c:	6808      	ldr	r0, [r1, #0]
		m_size (chunk) |= MALLOC_UMASK;
    141e:	f844 2c04 	str.w	r2, [r4, #-4]
		if (mnfree [MA_NP] > mcfree [MA_NP])
    1422:	4283      	cmp	r3, r0
			mnfree [MA_NP] = mcfree [MA_NP];
    1424:	bf38      	it	cc
    1426:	600b      	strcc	r3, [r1, #0]
}
    1428:	4620      	mov	r0, r4
    142a:	bd38      	pop	{r3, r4, r5, pc}
    142c:	20000134 	andcs	r0, r0, r4, lsr r1
    1430:	deafdeaf 	cdple	14, 10, cr13, cr15, cr15, {5}
    1434:	2000012c 	andcs	r0, r0, ip, lsr #2
    1438:	20000130 	andcs	r0, r0, r0, lsr r1
    143c:	000042a0 	andeq	r4, r0, r0, lsr #5
    1440:	20000128 	andcs	r0, r0, r8, lsr #2

00001444 <__pi_fork>:
aword __pi_fork (fsmcode func, aword data) {
    1444:	b538      	push	{r3, r4, r5, lr}
    1446:	4605      	mov	r5, r0
	if ((i = (__pi_pcb_t*) umalloc (sizeof (__pi_pcb_t))) == NULL)
    1448:	2030      	movs	r0, #48	; 0x30
aword __pi_fork (fsmcode func, aword data) {
    144a:	460c      	mov	r4, r1
	if ((i = (__pi_pcb_t*) umalloc (sizeof (__pi_pcb_t))) == NULL)
    144c:	f7ff ffa6 	bl	139c <__pi_malloc>
    1450:	2300      	movs	r3, #0
    1452:	b138      	cbz	r0, 1464 <__pi_fork+0x20>
		if ((j = __PCB) == NULL)
    1454:	4a07      	ldr	r2, [pc, #28]	; (1474 <__pi_fork+0x30>)
	i->Status = 0;
    1456:	8003      	strh	r3, [r0, #0]
	i->Next = NULL;
    1458:	62c3      	str	r3, [r0, #44]	; 0x2c
		if ((j = __PCB) == NULL)
    145a:	6813      	ldr	r3, [r2, #0]
	i->data = data;
    145c:	e9c0 5401 	strd	r5, r4, [r0, #4]
		if ((j = __PCB) == NULL)
    1460:	b90b      	cbnz	r3, 1466 <__pi_fork+0x22>
			__PCB = i;
    1462:	6010      	str	r0, [r2, #0]
}
    1464:	bd38      	pop	{r3, r4, r5, pc}
			for (; j->Next != NULL; j = j->Next);
    1466:	461a      	mov	r2, r3
    1468:	6adb      	ldr	r3, [r3, #44]	; 0x2c
    146a:	2b00      	cmp	r3, #0
    146c:	d1fb      	bne.n	1466 <__pi_fork+0x22>
			j->Next = i;
    146e:	62d0      	str	r0, [r2, #44]	; 0x2c
	return (aword) i;
    1470:	e7f8      	b.n	1464 <__pi_fork+0x20>
    1472:	bf00      	nop
    1474:	20000120 	andcs	r0, r0, r0, lsr #2

00001478 <__pi_waitmem>:
	if (mevent [MA_NP] . nwait != 255)
    1478:	4a04      	ldr	r2, [pc, #16]	; (148c <__pi_waitmem+0x14>)
void __pi_waitmem (word state) {
    147a:	4601      	mov	r1, r0
	if (mevent [MA_NP] . nwait != 255)
    147c:	7813      	ldrb	r3, [r2, #0]
	wait ((aword)(&(mevent [MA_NP])), state);
    147e:	4803      	ldr	r0, [pc, #12]	; (148c <__pi_waitmem+0x14>)
	if (mevent [MA_NP] . nwait != 255)
    1480:	2bff      	cmp	r3, #255	; 0xff
		mevent [MA_NP] . nwait ++;
    1482:	bf1c      	itt	ne
    1484:	3301      	addne	r3, #1
    1486:	7013      	strbne	r3, [r2, #0]
	wait ((aword)(&(mevent [MA_NP])), state);
    1488:	f7ff be20 	b.w	10cc <__pi_wait>
    148c:	2000012c 	andcs	r0, r0, ip, lsr #2

00001490 <diag>:

#endif	/* dbg_level */

#if	DIAG_MESSAGES

void diag (const char *mess, ...) {
    1490:	b40f      	push	{r0, r1, r2, r3}
    1492:	e92d 43f7 	stmdb	sp!, {r0, r1, r2, r4, r5, r6, r7, r8, r9, lr}
    1496:	ab0a      	add	r3, sp, #40	; 0x28
    1498:	f853 4b04 	ldr.w	r4, [r3], #4
	sint bc;
	word v;
	byte is;

	va_start (ap, mess);
	diag_disable_int (a, is);
    149c:	2015      	movs	r0, #21
	va_start (ap, mess);
    149e:	9301      	str	r3, [sp, #4]
	diag_disable_int (a, is);
    14a0:	4b46      	ldr	r3, [pc, #280]	; (15bc <diag+0x12c>)
				d = (bc == 16) ? 10000 : 1000000000;
				while (1) {
					// Strip initial zeros
					v = (word) (val / d);
					if (v || d == 1) break;
					d /= 10;
    14a2:	270a      	movs	r7, #10
	diag_disable_int (a, is);
    14a4:	681b      	ldr	r3, [r3, #0]
				d = (bc == 16) ? 10000 : 1000000000;
    14a6:	f8df 811c 	ldr.w	r8, [pc, #284]	; 15c4 <diag+0x134>
	diag_disable_int (a, is);
    14aa:	695b      	ldr	r3, [r3, #20]
    14ac:	4798      	blx	r3
	while (*mess != '\0') {
    14ae:	7820      	ldrb	r0, [r4, #0]
    14b0:	b998      	cbnz	r0, 14da <diag+0x4a>
		} else {
			dgout (*mess++);
		}
	}

	dgout ('\r');
    14b2:	200d      	movs	r0, #13
    14b4:	f7ff fd6c 	bl	f90 <dgout>
	dgout ('\n');
    14b8:	200a      	movs	r0, #10
    14ba:	f7ff fd69 	bl	f90 <dgout>
    14be:	4a40      	ldr	r2, [pc, #256]	; (15c0 <diag+0x130>)
    14c0:	6813      	ldr	r3, [r2, #0]
	diag_wait (a);
    14c2:	071b      	lsls	r3, r3, #28
    14c4:	d4fc      	bmi.n	14c0 <diag+0x30>
	diag_enable_int (a, is);
    14c6:	4b3d      	ldr	r3, [pc, #244]	; (15bc <diag+0x12c>)
    14c8:	2015      	movs	r0, #21
    14ca:	681b      	ldr	r3, [r3, #0]
    14cc:	691b      	ldr	r3, [r3, #16]
    14ce:	4798      	blx	r3
}
    14d0:	b003      	add	sp, #12
    14d2:	e8bd 43f0 	ldmia.w	sp!, {r4, r5, r6, r7, r8, r9, lr}
    14d6:	b004      	add	sp, #16
    14d8:	4770      	bx	lr
		if (*mess == '%') {
    14da:	2825      	cmp	r0, #37	; 0x25
    14dc:	f104 0601 	add.w	r6, r4, #1
    14e0:	d169      	bne.n	15b6 <diag+0x126>
			if (*mess == 'l') {
    14e2:	9b01      	ldr	r3, [sp, #4]
    14e4:	7862      	ldrb	r2, [r4, #1]
    14e6:	f853 1b04 	ldr.w	r1, [r3], #4
    14ea:	2a6c      	cmp	r2, #108	; 0x6c
				mess++;
    14ec:	bf08      	it	eq
    14ee:	1ca6      	addeq	r6, r4, #2
				val = va_arg (ap, lword);
    14f0:	9301      	str	r3, [sp, #4]
			switch (*mess) {
    14f2:	7833      	ldrb	r3, [r6, #0]
				bc = 32;
    14f4:	bf0c      	ite	eq
    14f6:	2520      	moveq	r5, #32
				bc = 16;
    14f8:	2510      	movne	r5, #16
			switch (*mess) {
    14fa:	2b75      	cmp	r3, #117	; 0x75
    14fc:	d04e      	beq.n	159c <diag+0x10c>
    14fe:	d80a      	bhi.n	1516 <diag+0x86>
    1500:	2b64      	cmp	r3, #100	; 0x64
    1502:	d01c      	beq.n	153e <diag+0xae>
    1504:	2b73      	cmp	r3, #115	; 0x73
    1506:	d052      	beq.n	15ae <diag+0x11e>
				dgout ('%');
    1508:	2025      	movs	r0, #37	; 0x25
    150a:	f7ff fd41 	bl	f90 <dgout>
				dgout (*mess);
    150e:	7830      	ldrb	r0, [r6, #0]
    1510:	f7ff fd3e 	bl	f90 <dgout>
    1514:	e010      	b.n	1538 <diag+0xa8>
			switch (*mess) {
    1516:	2b78      	cmp	r3, #120	; 0x78
    1518:	d1f6      	bne.n	1508 <diag+0x78>
    151a:	2400      	movs	r4, #0
					v = __pi_hex_enc_table [
    151c:	f8df 90a8 	ldr.w	r9, [pc, #168]	; 15c8 <diag+0x138>
					i += 4;
    1520:	3404      	adds	r4, #4
					(val >> (bc - i)) & 0xf];
    1522:	1b2b      	subs	r3, r5, r4
    1524:	fa21 f303 	lsr.w	r3, r1, r3
    1528:	f003 030f 	and.w	r3, r3, #15
					dgout (v);
    152c:	f819 0003 	ldrb.w	r0, [r9, r3]
    1530:	f7ff fd2e 	bl	f90 <dgout>
				while (i < bc) {
    1534:	42a5      	cmp	r5, r4
    1536:	dcf3      	bgt.n	1520 <diag+0x90>
			mess++;
    1538:	3601      	adds	r6, #1
					d /= 10;
    153a:	4634      	mov	r4, r6
    153c:	e7b7      	b.n	14ae <diag+0x1e>
				if ((val >> (bc - 1)) & 1) {
    153e:	1e6b      	subs	r3, r5, #1
    1540:	fa21 f303 	lsr.w	r3, r1, r3
    1544:	07da      	lsls	r2, r3, #31
    1546:	d509      	bpl.n	155c <diag+0xcc>
					dgout ('-');
    1548:	202d      	movs	r0, #45	; 0x2d
    154a:	f7ff fd21 	bl	f90 <dgout>
					if (bc == 16)
    154e:	2d10      	cmp	r5, #16
						val |= 0xffff0000;
    1550:	bf04      	itt	eq
    1552:	ea6f 4101 	mvneq.w	r1, r1, lsl #16
    1556:	ea6f 4111 	mvneq.w	r1, r1, lsr #16
					val = ~val + 1;
    155a:	4249      	negs	r1, r1
				d = (bc == 16) ? 10000 : 1000000000;
    155c:	f242 7410 	movw	r4, #10000	; 0x2710
    1560:	2d10      	cmp	r5, #16
    1562:	bf18      	it	ne
    1564:	4644      	movne	r4, r8
					v = (word) (val / d);
    1566:	fbb1 f5f4 	udiv	r5, r1, r4
    156a:	b2ad      	uxth	r5, r5
					if (v || d == 1) break;
    156c:	b935      	cbnz	r5, 157c <diag+0xec>
    156e:	2c01      	cmp	r4, #1
    1570:	d004      	beq.n	157c <diag+0xec>
					d /= 10;
    1572:	fbb4 f4f7 	udiv	r4, r4, r7
					v = (word) (val / d);
    1576:	e7f6      	b.n	1566 <diag+0xd6>
				d = (bc == 16) ? 10000 : 1000000000;
    1578:	4c12      	ldr	r4, [pc, #72]	; (15c4 <diag+0x134>)
    157a:	e7f4      	b.n	1566 <diag+0xd6>
					dgout (v + '0');
    157c:	f105 0030 	add.w	r0, r5, #48	; 0x30
    1580:	b280      	uxth	r0, r0
    1582:	f7ff fd05 	bl	f90 <dgout>
					if (d == 0) break;
    1586:	2c09      	cmp	r4, #9
					d /= 10;
    1588:	fbb4 f3f7 	udiv	r3, r4, r7
					val = val - (v * d);
    158c:	fb04 1115 	mls	r1, r4, r5, r1
					if (d == 0) break;
    1590:	d9d2      	bls.n	1538 <diag+0xa8>
					v = (word) (val / d);
    1592:	fbb1 f5f3 	udiv	r5, r1, r3
					d /= 10;
    1596:	461c      	mov	r4, r3
					v = (word) (val / d);
    1598:	b2ad      	uxth	r5, r5
					dgout (v + '0');
    159a:	e7ef      	b.n	157c <diag+0xec>
				if (bc == 16)
    159c:	2d10      	cmp	r5, #16
    159e:	d1eb      	bne.n	1578 <diag+0xe8>
				d = (bc == 16) ? 10000 : 1000000000;
    15a0:	f242 7410 	movw	r4, #10000	; 0x2710
					val &= 0xffff;
    15a4:	b289      	uxth	r1, r1
				d = (bc == 16) ? 10000 : 1000000000;
    15a6:	e7de      	b.n	1566 <diag+0xd6>
					dgout (*s);
    15a8:	f7ff fcf2 	bl	f90 <dgout>
					s++;
    15ac:	3101      	adds	r1, #1
				while (*s != '\0') {
    15ae:	7808      	ldrb	r0, [r1, #0]
    15b0:	2800      	cmp	r0, #0
    15b2:	d1f9      	bne.n	15a8 <diag+0x118>
    15b4:	e7c0      	b.n	1538 <diag+0xa8>
			dgout (*mess++);
    15b6:	f7ff fceb 	bl	f90 <dgout>
    15ba:	e7be      	b.n	153a <diag+0xaa>
    15bc:	100001b0 			; <UNDEFINED> instruction: 0x100001b0
    15c0:	40001018 	andmi	r1, r0, r8, lsl r0
    15c4:	3b9aca00 	blcc	fe6b3dcc <_estack+0xde6aedcc>
    15c8:	000042a5 	andeq	r4, r0, r5, lsr #5

000015cc <lrnd>:
// ============================================================================
// High-quality RNG (oh, well, as high as we can afford) ======================
// ============================================================================
#if RANDOM_NUMBER_GENERATOR > 1
lword lrnd () {
	__pi_seed = __pi_seed * 1103515245 + 12345;
    15cc:	f243 0039 	movw	r0, #12345	; 0x3039
    15d0:	4a04      	ldr	r2, [pc, #16]	; (15e4 <lrnd+0x18>)
    15d2:	4905      	ldr	r1, [pc, #20]	; (15e8 <lrnd+0x1c>)
    15d4:	6813      	ldr	r3, [r2, #0]
    15d6:	fb01 0303 	mla	r3, r1, r3, r0
    15da:	6013      	str	r3, [r2, #0]
	return __pi_seed
#if ENTROPY_COLLECTION
	^ entropy
    15dc:	4a03      	ldr	r2, [pc, #12]	; (15ec <lrnd+0x20>)
    15de:	6810      	ldr	r0, [r2, #0]
#endif
	;
}
    15e0:	4058      	eors	r0, r3
    15e2:	4770      	bx	lr
    15e4:	20000004 	andcs	r0, r0, r4
    15e8:	41c64e6d 	bicmi	r4, r6, sp, ror #28
    15ec:	2000020c 	andcs	r0, r0, ip, lsl #4

000015f0 <apb>:
/*
 * Forced implicit packet dropping removed. Plugins will have to drop
 * packets explicitly (if they really want to).
 */

__PRIVF (PicOSNode, hblock_t*, apb) (word size) {
    15f0:	b510      	push	{r4, lr}
    15f2:	4604      	mov	r4, r0
/* ========================================= */
/* Allocates a packet buffer size bytes long */
/* ========================================= */

	hblock_t *p;
	word cs = size + hblenb;
    15f4:	300c      	adds	r0, #12

	if ((p = (hblock_t*)b_malloc (cs)) == NULL)
    15f6:	b280      	uxth	r0, r0
    15f8:	f7ff fed0 	bl	139c <__pi_malloc>
    15fc:	b110      	cbz	r0, 1604 <apb+0x14>

#if	TCV_HOOKS
	p -> hptr = NULL;
#endif
	p -> length = size;
	p -> attributes . value = 0;
    15fe:	2300      	movs	r3, #0
	p -> length = size;
    1600:	8104      	strh	r4, [r0, #8]
	p -> attributes . value = 0;
    1602:	8143      	strh	r3, [r0, #10]
#endif
	return p;
	/*
	 * Note that this doesn't initialize the plugin/phys/session stuff.
	 */
}
    1604:	bd10      	pop	{r4, pc}

00001606 <deq>:
	if (p->attributes.b.queued) {
    1606:	7a83      	ldrb	r3, [r0, #10]
    1608:	07db      	lsls	r3, r3, #31
    160a:	d508      	bpl.n	161e <deq+0x18>
		p->u.bqueue.next -> prev = p->u.bqueue.prev;
    160c:	e9d0 2300 	ldrd	r2, r3, [r0]
    1610:	6053      	str	r3, [r2, #4]
		p->u.bqueue.prev -> next = p->u.bqueue.next;
    1612:	6802      	ldr	r2, [r0, #0]
    1614:	601a      	str	r2, [r3, #0]
		p->attributes.b.queued = 0;
    1616:	7a83      	ldrb	r3, [r0, #10]
    1618:	f36f 0300 	bfc	r3, #0, #1
    161c:	7283      	strb	r3, [r0, #10]
}
    161e:	4770      	bx	lr

00001620 <rlp>:
__PRIVF (PicOSNode, void, rlp) (hblock_t *p) {
    1620:	b508      	push	{r3, lr}
	deq (p);	// Remove from queue
    1622:	f7ff fff0 	bl	1606 <deq>
}
    1626:	e8bd 4008 	ldmia.w	sp!, {r3, lr}
	tfree ((address)p);
    162a:	f7ff be6b 	b.w	1304 <__pi_free>
	...

00001630 <enq>:
__PRIVF (PicOSNode, void, enq) (qhead_t *q, hblock_t *p) {
    1630:	b538      	push	{r3, r4, r5, lr}
	sysassert (p->attributes.b.queued == 0, "tcv01");
    1632:	7a8b      	ldrb	r3, [r1, #10]
__PRIVF (PicOSNode, void, enq) (qhead_t *q, hblock_t *p) {
    1634:	4605      	mov	r5, r0
	sysassert (p->attributes.b.queued == 0, "tcv01");
    1636:	07da      	lsls	r2, r3, #31
__PRIVF (PicOSNode, void, enq) (qhead_t *q, hblock_t *p) {
    1638:	460c      	mov	r4, r1
	sysassert (p->attributes.b.queued == 0, "tcv01");
    163a:	d503      	bpl.n	1644 <enq+0x14>
    163c:	200a      	movs	r0, #10
    163e:	490e      	ldr	r1, [pc, #56]	; (1678 <enq+0x48>)
    1640:	f7fe ff16 	bl	470 <__pi_syserror>
	if (q_empty (q))
    1644:	6803      	ldr	r3, [r0, #0]
    1646:	4283      	cmp	r3, r0
    1648:	d101      	bne.n	164e <enq+0x1e>
		trigger (q);
    164a:	f7ff fd59 	bl	1100 <__pi_trigger>
	if (p->attributes.b.urgent) {
    164e:	7aa3      	ldrb	r3, [r4, #10]
    1650:	075b      	lsls	r3, r3, #29
    1652:	d50a      	bpl.n	166a <enq+0x3a>
		p->u.bqueue.next = q->next;
    1654:	682b      	ldr	r3, [r5, #0]
		p->u.bqueue.prev = q;
    1656:	e9c4 3500 	strd	r3, r5, [r4]
		q->next->prev = (qitem_t*) p;
    165a:	682b      	ldr	r3, [r5, #0]
    165c:	605c      	str	r4, [r3, #4]
		q->next = (qitem_t*) p;
    165e:	602c      	str	r4, [r5, #0]
	p->attributes.b.queued = 1;
    1660:	7aa3      	ldrb	r3, [r4, #10]
    1662:	f043 0301 	orr.w	r3, r3, #1
    1666:	72a3      	strb	r3, [r4, #10]
}
    1668:	bd38      	pop	{r3, r4, r5, pc}
		p->u.bqueue.next = q;
    166a:	6025      	str	r5, [r4, #0]
		p->u.bqueue.prev = q->prev;
    166c:	686b      	ldr	r3, [r5, #4]
    166e:	6063      	str	r3, [r4, #4]
		q->prev->next = (qitem_t*) p;
    1670:	601c      	str	r4, [r3, #0]
		q->prev = (qitem_t*) p;
    1672:	606c      	str	r4, [r5, #4]
    1674:	e7f4      	b.n	1660 <enq+0x30>
    1676:	bf00      	nop
    1678:	000042b5 			; <UNDEFINED> instruction: 0x000042b5

0000167c <dispose>:
__PRIVF (PicOSNode, void, dispose) (hblock_t *p, int dv) {
    167c:	b510      	push	{r4, lr}
    167e:	4604      	mov	r4, r0
	deq (p);	// Soft dequeue, timer and hook left intact
    1680:	f7ff ffc1 	bl	1606 <deq>
	switch (dv) {
    1684:	3901      	subs	r1, #1
    1686:	2904      	cmp	r1, #4
    1688:	d832      	bhi.n	16f0 <dispose+0x74>
    168a:	e8df f001 	tbb	[pc, r1]
    168e:	1d03072d 	stcne	7, cr0, [r3, #-180]	; 0xffffff4c
    1692:	7a830019 	bvc	fe0c16fe <_estack+0xde0bc6fe>
			p->attributes.b.urgent = 1;
    1696:	f043 0304 	orr.w	r3, r3, #4
    169a:	7283      	strb	r3, [r0, #10]
			verify_ses (p, "dispose ses");
    169c:	8963      	ldrh	r3, [r4, #10]
    169e:	f3c3 03c6 	ubfx	r3, r3, #3, #7
    16a2:	2b07      	cmp	r3, #7
    16a4:	d803      	bhi.n	16ae <dispose+0x32>
    16a6:	4a13      	ldr	r2, [pc, #76]	; (16f4 <dispose+0x78>)
    16a8:	f852 0023 	ldr.w	r0, [r2, r3, lsl #2]
    16ac:	b918      	cbnz	r0, 16b6 <dispose+0x3a>
    16ae:	4912      	ldr	r1, [pc, #72]	; (16f8 <dispose+0x7c>)
			verify_phy (p, "dispose phy");
    16b0:	200a      	movs	r0, #10
    16b2:	f7fe fedd 	bl	470 <__pi_syserror>
			enq (&(descriptors [p->attributes.b.session]->rqueue),
    16b6:	4621      	mov	r1, r4
}
    16b8:	e8bd 4010 	ldmia.w	sp!, {r4, lr}
			enq (oqueues [p->attributes.b.phys], p);
    16bc:	f7ff bfb8 	b.w	1630 <enq>
			p->attributes.b.urgent = 1;
    16c0:	7a83      	ldrb	r3, [r0, #10]
    16c2:	f043 0304 	orr.w	r3, r3, #4
    16c6:	7283      	strb	r3, [r0, #10]
			verify_phy (p, "dispose phy");
    16c8:	7ae2      	ldrb	r2, [r4, #11]
    16ca:	2a5f      	cmp	r2, #95	; 0x5f
    16cc:	ea4f 1352 	mov.w	r3, r2, lsr #5
    16d0:	d803      	bhi.n	16da <dispose+0x5e>
    16d2:	4a0a      	ldr	r2, [pc, #40]	; (16fc <dispose+0x80>)
    16d4:	f852 2023 	ldr.w	r2, [r2, r3, lsl #2]
    16d8:	b90a      	cbnz	r2, 16de <dispose+0x62>
    16da:	4909      	ldr	r1, [pc, #36]	; (1700 <dispose+0x84>)
    16dc:	e7e8      	b.n	16b0 <dispose+0x34>
			enq (oqueues [p->attributes.b.phys], p);
    16de:	4a09      	ldr	r2, [pc, #36]	; (1704 <dispose+0x88>)
    16e0:	4621      	mov	r1, r4
    16e2:	f852 0023 	ldr.w	r0, [r2, r3, lsl #2]
    16e6:	e7e7      	b.n	16b8 <dispose+0x3c>
}
    16e8:	e8bd 4010 	ldmia.w	sp!, {r4, lr}
			rlp (p);
    16ec:	f7ff bf98 	b.w	1620 <rlp>
}
    16f0:	bd10      	pop	{r4, pc}
    16f2:	bf00      	nop
    16f4:	20000138 	andcs	r0, r0, r8, lsr r1
    16f8:	000042bb 			; <UNDEFINED> instruction: 0x000042bb
    16fc:	20000164 	andcs	r0, r0, r4, ror #2
    1700:	000042c7 	andeq	r4, r0, r7, asr #5
    1704:	20000158 	andcs	r0, r0, r8, asr r1

00001708 <tcv_endp>:
		/* ===================================== */
		/* Functions callable by the application */
		/* ===================================== */
/* ---------------------------------------------------------------------- */

__PUBLF (PicOSNode, void, tcv_endp) (address p) {
    1708:	b510      	push	{r4, lr}
 * somewhere or deallocated.
 */
	hblock_t *b;

	b = header (p);
	if (b->attributes.b.outgoing) {
    170a:	f810 2c02 	ldrb.w	r2, [r0, #-2]
	b = header (p);
    170e:	f1a0 040c 	sub.w	r4, r0, #12
	if (b->attributes.b.outgoing) {
    1712:	0792      	lsls	r2, r2, #30
    1714:	d522      	bpl.n	175c <tcv_endp+0x54>
		verify_ses (b, "tcv02");
    1716:	f830 2c02 	ldrh.w	r2, [r0, #-2]
    171a:	f3c2 02c6 	ubfx	r2, r2, #3, #7
    171e:	2a07      	cmp	r2, #7
    1720:	d803      	bhi.n	172a <tcv_endp+0x22>
    1722:	4911      	ldr	r1, [pc, #68]	; (1768 <tcv_endp+0x60>)
    1724:	f851 2022 	ldr.w	r2, [r1, r2, lsl #2]
    1728:	b91a      	cbnz	r2, 1732 <tcv_endp+0x2a>
    172a:	4910      	ldr	r1, [pc, #64]	; (176c <tcv_endp+0x64>)
		verify_plg (b, tcv_out, "tcv03");
    172c:	200a      	movs	r0, #10
    172e:	f7fe fe9f 	bl	470 <__pi_syserror>
    1732:	f810 3c01 	ldrb.w	r3, [r0, #-1]
    1736:	f3c3 0382 	ubfx	r3, r3, #2, #3
    173a:	2b02      	cmp	r3, #2
    173c:	d805      	bhi.n	174a <tcv_endp+0x42>
    173e:	4a0c      	ldr	r2, [pc, #48]	; (1770 <tcv_endp+0x68>)
    1740:	f852 3023 	ldr.w	r3, [r2, r3, lsl #2]
    1744:	b10b      	cbz	r3, 174a <tcv_endp+0x42>
    1746:	691b      	ldr	r3, [r3, #16]
    1748:	b90b      	cbnz	r3, 174e <tcv_endp+0x46>
    174a:	490a      	ldr	r1, [pc, #40]	; (1774 <tcv_endp+0x6c>)
    174c:	e7ee      	b.n	172c <tcv_endp+0x24>
		dispose (b, plugins [b->attributes.b.plugin] ->
    174e:	4798      	blx	r3
    1750:	4601      	mov	r1, r0
    1752:	4620      	mov	r0, r4
		 * This is a received packet - just drop it, no need to verify
		 * session, can be legitimately invoked after the session has
		 * been closed,
		 */
		rlp (b);
}
    1754:	e8bd 4010 	ldmia.w	sp!, {r4, lr}
		dispose (b, plugins [b->attributes.b.plugin] ->
    1758:	f7ff bf90 	b.w	167c <dispose>
		rlp (b);
    175c:	4620      	mov	r0, r4
}
    175e:	e8bd 4010 	ldmia.w	sp!, {r4, lr}
		rlp (b);
    1762:	f7ff bf5d 	b.w	1620 <rlp>
    1766:	bf00      	nop
    1768:	20000138 	andcs	r0, r0, r8, lsr r1
    176c:	000042d3 	ldrdeq	r4, [r0], -r3
    1770:	2000017c 	andcs	r0, r0, ip, ror r1
    1774:	000042d9 	ldrdeq	r4, [r0], -r9

00001778 <tcv_open>:
#else
// ============================================================================

// Non-blocking open and close

__PUBLF (PicOSNode, int, tcv_open) (word state, int phy, int plid, ... ) {
    1778:	b40c      	push	{r2, r3}
    177a:	e92d 47f3 	stmdb	sp!, {r0, r1, r4, r5, r6, r7, r8, r9, sl, lr}
    177e:	ab0a      	add	r3, sp, #40	; 0x28
    1780:	f853 8b04 	ldr.w	r8, [r3], #4
	va_list		ap;
	va_start (ap, plid);

#if DIAG_MESSAGES > 1
	/* Check if we have the plugin and the phy */
	if (phy < 0 || phy >= TCV_MAX_PHYS || oqueues [phy] == NULL ||
    1784:	2902      	cmp	r1, #2
__PUBLF (PicOSNode, int, tcv_open) (word state, int phy, int plid, ... ) {
    1786:	460f      	mov	r7, r1
	va_start (ap, plid);
    1788:	9301      	str	r3, [sp, #4]
	if (phy < 0 || phy >= TCV_MAX_PHYS || oqueues [phy] == NULL ||
    178a:	d80b      	bhi.n	17a4 <tcv_open+0x2c>
    178c:	4b24      	ldr	r3, [pc, #144]	; (1820 <tcv_open+0xa8>)
    178e:	f853 3021 	ldr.w	r3, [r3, r1, lsl #2]
    1792:	b13b      	cbz	r3, 17a4 <tcv_open+0x2c>
		plid < 0 || plid >= TCV_MAX_PLUGS || plugins [plid] == NULL)
    1794:	f1b8 0f02 	cmp.w	r8, #2
    1798:	d804      	bhi.n	17a4 <tcv_open+0x2c>
    179a:	4b22      	ldr	r3, [pc, #136]	; (1824 <tcv_open+0xac>)
    179c:	f853 2028 	ldr.w	r2, [r3, r8, lsl #2]
    17a0:	4699      	mov	r9, r3
    17a2:	b91a      	cbnz	r2, 17ac <tcv_open+0x34>
			syserror (ENODEVICE, "tcv04");
    17a4:	2001      	movs	r0, #1
    17a6:	4920      	ldr	r1, [pc, #128]	; (1828 <tcv_open+0xb0>)
	if (fd == TCV_MAX_DESC)
		return ERROR;

	s = (sesdesc_t*) s_malloc (sizeof (sesdesc_t));
	if (s == NULL)
		syserror (EMALLOC, "tcv05");
    17a8:	f7fe fe62 	bl	470 <__pi_syserror>
	attp.b.outgoing = 1;
    17ac:	f008 0307 	and.w	r3, r8, #7
    17b0:	029b      	lsls	r3, r3, #10
    17b2:	f043 0302 	orr.w	r3, r3, #2
    17b6:	ea43 3541 	orr.w	r5, r3, r1, lsl #13
	for (fd = 0; fd < TCV_MAX_DESC; fd++)
    17ba:	4b1c      	ldr	r3, [pc, #112]	; (182c <tcv_open+0xb4>)
    17bc:	2600      	movs	r6, #0
    17be:	469a      	mov	sl, r3
		if (descriptors [fd] == NULL)
    17c0:	f853 2b04 	ldr.w	r2, [r3], #4
    17c4:	b312      	cbz	r2, 180c <tcv_open+0x94>
	for (fd = 0; fd < TCV_MAX_DESC; fd++)
    17c6:	3601      	adds	r6, #1
    17c8:	2e08      	cmp	r6, #8
    17ca:	d1f9      	bne.n	17c0 <tcv_open+0x48>
		return ERROR;
    17cc:	f04f 36ff 	mov.w	r6, #4294967295	; 0xffffffff
		return ERROR;
	}

	descriptors [fd] = s;
	return fd;
}
    17d0:	4630      	mov	r0, r6
    17d2:	b002      	add	sp, #8
    17d4:	e8bd 47f0 	ldmia.w	sp!, {r4, r5, r6, r7, r8, r9, sl, lr}
    17d8:	b002      	add	sp, #8
    17da:	4770      	bx	lr
	s->attpattern.b.session = fd;
    17dc:	462b      	mov	r3, r5
    17de:	f366 03c9 	bfi	r3, r6, #3, #7
	descriptors [fd] = s;
    17e2:	f84a 4026 	str.w	r4, [sl, r6, lsl #2]
	s->attpattern.b.session = fd;
    17e6:	8123      	strh	r3, [r4, #8]
	q_init (&(s->rqueue));
    17e8:	e9c4 4400 	strd	r4, r4, [r4]
	sysassert (plugins [plid] -> tcv_ope != NULL, "tcv06");
    17ec:	f859 3028 	ldr.w	r3, [r9, r8, lsl #2]
    17f0:	681b      	ldr	r3, [r3, #0]
    17f2:	b913      	cbnz	r3, 17fa <tcv_open+0x82>
    17f4:	200a      	movs	r0, #10
    17f6:	490e      	ldr	r1, [pc, #56]	; (1830 <tcv_open+0xb8>)
    17f8:	e7d6      	b.n	17a8 <tcv_open+0x30>
	if (plugins [plid] -> tcv_ope (phy, fd, ap)) {
    17fa:	4631      	mov	r1, r6
    17fc:	4638      	mov	r0, r7
    17fe:	9a01      	ldr	r2, [sp, #4]
    1800:	4798      	blx	r3
    1802:	2800      	cmp	r0, #0
    1804:	d1e2      	bne.n	17cc <tcv_open+0x54>
	descriptors [fd] = s;
    1806:	f84a 4026 	str.w	r4, [sl, r6, lsl #2]
	return fd;
    180a:	e7e1      	b.n	17d0 <tcv_open+0x58>
	s = (sesdesc_t*) s_malloc (sizeof (sesdesc_t));
    180c:	200c      	movs	r0, #12
    180e:	f7ff fdc5 	bl	139c <__pi_malloc>
	if (s == NULL)
    1812:	4604      	mov	r4, r0
    1814:	2800      	cmp	r0, #0
    1816:	d1e1      	bne.n	17dc <tcv_open+0x64>
		syserror (EMALLOC, "tcv05");
    1818:	2006      	movs	r0, #6
    181a:	4906      	ldr	r1, [pc, #24]	; (1834 <tcv_open+0xbc>)
    181c:	e7c4      	b.n	17a8 <tcv_open+0x30>
    181e:	bf00      	nop
    1820:	20000158 	andcs	r0, r0, r8, asr r1
    1824:	2000017c 	andcs	r0, r0, ip, ror r1
    1828:	000042df 	ldrdeq	r4, [r0], -pc	; <UNPREDICTABLE>
    182c:	20000138 	andcs	r0, r0, r8, lsr r1
    1830:	000042eb 	andeq	r4, r0, fp, ror #5
    1834:	000042e5 	andeq	r4, r0, r5, ror #5

00001838 <tcv_plug>:

__PUBLF (PicOSNode, int, tcv_plug) (int ord, const tcvplug_t *pl) {
/*
 * This is one way now. Later we may implement switching plugs on the fly.
 */
	if (ord < 0 || ord >= TCV_MAX_PLUGS ||
    1838:	2802      	cmp	r0, #2
    183a:	d809      	bhi.n	1850 <tcv_plug+0x18>
	    (plugins [ord] != NULL && plugins [ord] != pl))
    183c:	4b06      	ldr	r3, [pc, #24]	; (1858 <tcv_plug+0x20>)
    183e:	f853 2020 	ldr.w	r2, [r3, r0, lsl #2]
	if (ord < 0 || ord >= TCV_MAX_PLUGS ||
    1842:	b10a      	cbz	r2, 1848 <tcv_plug+0x10>
	    (plugins [ord] != NULL && plugins [ord] != pl))
    1844:	428a      	cmp	r2, r1
    1846:	d103      	bne.n	1850 <tcv_plug+0x18>
		return ERROR;

	plugins [ord] = pl;
    1848:	f843 1020 	str.w	r1, [r3, r0, lsl #2]
	return 0;
    184c:	2000      	movs	r0, #0
    184e:	4770      	bx	lr
		return ERROR;
    1850:	f04f 30ff 	mov.w	r0, #4294967295	; 0xffffffff
}
    1854:	4770      	bx	lr
    1856:	bf00      	nop
    1858:	2000017c 	andcs	r0, r0, ip, ror r1

0000185c <tcv_rnp>:
 */
	address p;
	hblock_t *b;
	qhead_t *rq;

	verify_fds (fd, "tcv10");
    185c:	2908      	cmp	r1, #8
__PUBLF (PicOSNode, address, tcv_rnp) (word state, int fd) {
    185e:	b538      	push	{r3, r4, r5, lr}
    1860:	4603      	mov	r3, r0
	verify_fds (fd, "tcv10");
    1862:	d803      	bhi.n	186c <tcv_rnp+0x10>
    1864:	4a19      	ldr	r2, [pc, #100]	; (18cc <tcv_rnp+0x70>)
    1866:	f852 0021 	ldr.w	r0, [r2, r1, lsl #2]
    186a:	b918      	cbnz	r0, 1874 <tcv_rnp+0x18>
    186c:	4918      	ldr	r1, [pc, #96]	; (18d0 <tcv_rnp+0x74>)
	deqtm (b);	// ... and clear its timer

	/* Packet pointer */
	p = ((address)(b + 1));
	/* Set the pointers to application data */
	verify_plg (b, tcv_frm, "tcv11");
    186e:	200a      	movs	r0, #10
    1870:	f7fe fdfe 	bl	470 <__pi_syserror>
	b = q_first (rq);
    1874:	6804      	ldr	r4, [r0, #0]
	if (q_end (b, rq)) {
    1876:	42a0      	cmp	r0, r4
    1878:	d108      	bne.n	188c <tcv_rnp+0x30>
		if (state != WNONE) {
    187a:	f64f 72ff 	movw	r2, #65535	; 0xffff
    187e:	4293      	cmp	r3, r2
    1880:	d021      	beq.n	18c6 <tcv_rnp+0x6a>
			when (rq, state);
    1882:	4619      	mov	r1, r3
    1884:	f7ff fc22 	bl	10cc <__pi_wait>
			release;
    1888:	f7ff f9b0 	bl	bec <__pi_release>
	deq (b);	// Dequeue the packet ...
    188c:	4620      	mov	r0, r4
    188e:	f7ff feba 	bl	1606 <deq>
	verify_plg (b, tcv_frm, "tcv11");
    1892:	7ae3      	ldrb	r3, [r4, #11]
	p = ((address)(b + 1));
    1894:	f104 050c 	add.w	r5, r4, #12
	verify_plg (b, tcv_frm, "tcv11");
    1898:	f3c3 0382 	ubfx	r3, r3, #2, #3
    189c:	2b02      	cmp	r3, #2
    189e:	d805      	bhi.n	18ac <tcv_rnp+0x50>
    18a0:	4a0c      	ldr	r2, [pc, #48]	; (18d4 <tcv_rnp+0x78>)
    18a2:	f852 3023 	ldr.w	r3, [r2, r3, lsl #2]
    18a6:	b10b      	cbz	r3, 18ac <tcv_rnp+0x50>
    18a8:	68db      	ldr	r3, [r3, #12]
    18aa:	b90b      	cbnz	r3, 18b0 <tcv_rnp+0x54>
    18ac:	490a      	ldr	r1, [pc, #40]	; (18d8 <tcv_rnp+0x7c>)
    18ae:	e7de      	b.n	186e <tcv_rnp+0x12>
	plugins [b->attributes.b.plugin]->tcv_frm (p, &(b->u.pointers));
    18b0:	4621      	mov	r1, r4
    18b2:	4628      	mov	r0, r5
    18b4:	4798      	blx	r3
	/* Adjust the second pointer to look like the length */
	b->u.pointers.tail =
		b->length - b->u.pointers.head - b->u.pointers.tail;
    18b6:	8823      	ldrh	r3, [r4, #0]
    18b8:	8862      	ldrh	r2, [r4, #2]
    18ba:	441a      	add	r2, r3
    18bc:	8923      	ldrh	r3, [r4, #8]
    18be:	1a9b      	subs	r3, r3, r2
	b->u.pointers.tail =
    18c0:	8063      	strh	r3, [r4, #2]
	/* OK, it seems that we are set */
	return p;
}
    18c2:	4628      	mov	r0, r5
    18c4:	bd38      	pop	{r3, r4, r5, pc}
		return NULL;
    18c6:	2500      	movs	r5, #0
    18c8:	e7fb      	b.n	18c2 <tcv_rnp+0x66>
    18ca:	bf00      	nop
    18cc:	20000138 	andcs	r0, r0, r8, lsr r1
    18d0:	000042f1 	strdeq	r4, [r0], -r1
    18d4:	2000017c 	andcs	r0, r0, ip, ror r1
    18d8:	000042f7 	strdeq	r4, [r0], -r7

000018dc <tcv_wnps>:
	hblock_t *b;
	tcvadp_t ptrs;
	sesdesc_t *s;
	int eid;

	verify_fds (fd, "tcv16");
    18dc:	2908      	cmp	r1, #8
								Boolean urg) {
    18de:	b5f7      	push	{r0, r1, r2, r4, r5, r6, r7, lr}
    18e0:	4605      	mov	r5, r0
    18e2:	4614      	mov	r4, r2
    18e4:	461e      	mov	r6, r3
	verify_fds (fd, "tcv16");
    18e6:	d803      	bhi.n	18f0 <tcv_wnps+0x14>
    18e8:	4b26      	ldr	r3, [pc, #152]	; (1984 <tcv_wnps+0xa8>)
    18ea:	f853 7021 	ldr.w	r7, [r3, r1, lsl #2]
    18ee:	b91f      	cbnz	r7, 18f8 <tcv_wnps+0x1c>
    18f0:	4925      	ldr	r1, [pc, #148]	; (1988 <tcv_wnps+0xac>)

	s = descriptors [fd];

	verify_pld (s, tcv_frm, "tcv17");
    18f2:	200a      	movs	r0, #10
    18f4:	f7fe fdbc 	bl	470 <__pi_syserror>
    18f8:	7a7b      	ldrb	r3, [r7, #9]
    18fa:	f3c3 0382 	ubfx	r3, r3, #2, #3
    18fe:	2b02      	cmp	r3, #2
    1900:	d805      	bhi.n	190e <tcv_wnps+0x32>
    1902:	4a22      	ldr	r2, [pc, #136]	; (198c <tcv_wnps+0xb0>)
    1904:	f852 3023 	ldr.w	r3, [r2, r3, lsl #2]
    1908:	b10b      	cbz	r3, 190e <tcv_wnps+0x32>
    190a:	68db      	ldr	r3, [r3, #12]
    190c:	b90b      	cbnz	r3, 1912 <tcv_wnps+0x36>
    190e:	4920      	ldr	r1, [pc, #128]	; (1990 <tcv_wnps+0xb4>)
    1910:	e7ef      	b.n	18f2 <tcv_wnps+0x16>

	// tcv_frm invoked with packet == NULL, pass in the frame parameters
	// the session and urgent flag
	ptrs.head = (word) fd;
    1912:	f8ad 1004 	strh.w	r1, [sp, #4]
	ptrs.tail = (word) urg;

	if ((eid = plugins [s->attpattern.b.plugin]->tcv_frm (NULL, &ptrs))) {
    1916:	2000      	movs	r0, #0
	ptrs.tail = (word) urg;
    1918:	f8ad 6006 	strh.w	r6, [sp, #6]
	if ((eid = plugins [s->attpattern.b.plugin]->tcv_frm (NULL, &ptrs))) {
    191c:	a901      	add	r1, sp, #4
    191e:	4798      	blx	r3
    1920:	b158      	cbz	r0, 193a <tcv_wnps+0x5e>
		// Blocked by the plugin
		if (state != WNONE) {
    1922:	f64f 73ff 	movw	r3, #65535	; 0xffff
    1926:	429d      	cmp	r5, r3
    1928:	d102      	bne.n	1930 <tcv_wnps+0x54>
			when (eid, state);
			release;
		}
		return NULL;
    192a:	2000      	movs	r0, #0
		b->attributes.b.urgent = 1;
	b->u.pointers.head = ptrs.head;
	b->u.pointers.tail = length;

	return (address) (b + 1);
}
    192c:	b003      	add	sp, #12
    192e:	bdf0      	pop	{r4, r5, r6, r7, pc}
			when (eid, state);
    1930:	4629      	mov	r1, r5
    1932:	f7ff fbcb 	bl	10cc <__pi_wait>
			release;
    1936:	f7ff f959 	bl	bec <__pi_release>
	sysassert (s->attpattern.b.queued == 0, "tcv18");
    193a:	7a3b      	ldrb	r3, [r7, #8]
    193c:	07db      	lsls	r3, r3, #31
    193e:	d501      	bpl.n	1944 <tcv_wnps+0x68>
    1940:	4914      	ldr	r1, [pc, #80]	; (1994 <tcv_wnps+0xb8>)
    1942:	e7d6      	b.n	18f2 <tcv_wnps+0x16>
	if ((b = apb (length + ptrs . head + ptrs . tail)) == NULL) {
    1944:	f8bd 0004 	ldrh.w	r0, [sp, #4]
    1948:	f8bd 3006 	ldrh.w	r3, [sp, #6]
    194c:	b2a4      	uxth	r4, r4
    194e:	4418      	add	r0, r3
    1950:	4420      	add	r0, r4
    1952:	b280      	uxth	r0, r0
    1954:	f7ff fe4c 	bl	15f0 <apb>
    1958:	b938      	cbnz	r0, 196a <tcv_wnps+0x8e>
		if (state != WNONE) {
    195a:	f64f 73ff 	movw	r3, #65535	; 0xffff
    195e:	429d      	cmp	r5, r3
    1960:	d0e3      	beq.n	192a <tcv_wnps+0x4e>
			tmwait (state);
    1962:	4628      	mov	r0, r5
    1964:	f7ff fd88 	bl	1478 <__pi_waitmem>
    1968:	e7e5      	b.n	1936 <tcv_wnps+0x5a>
	b->attributes = s->attpattern;
    196a:	893b      	ldrh	r3, [r7, #8]
    196c:	8143      	strh	r3, [r0, #10]
	if (urg)
    196e:	b11e      	cbz	r6, 1978 <tcv_wnps+0x9c>
		b->attributes.b.urgent = 1;
    1970:	7a83      	ldrb	r3, [r0, #10]
    1972:	f043 0304 	orr.w	r3, r3, #4
    1976:	7283      	strb	r3, [r0, #10]
	b->u.pointers.head = ptrs.head;
    1978:	f8bd 3004 	ldrh.w	r3, [sp, #4]
	b->u.pointers.tail = length;
    197c:	8044      	strh	r4, [r0, #2]
	b->u.pointers.head = ptrs.head;
    197e:	8003      	strh	r3, [r0, #0]
	return (address) (b + 1);
    1980:	300c      	adds	r0, #12
    1982:	e7d3      	b.n	192c <tcv_wnps+0x50>
    1984:	20000138 	andcs	r0, r0, r8, lsr r1
    1988:	000042fd 	strdeq	r4, [r0], -sp
    198c:	2000017c 	andcs	r0, r0, ip, ror r1
    1990:	00004303 	andeq	r4, r0, r3, lsl #6
    1994:	00004309 	andeq	r4, r0, r9, lsl #6

00001998 <tcvp_control>:
	           /* ================================ */
	           /* Functions callable by the plugin */
	           /* ================================ */
/* ---------------------------------------------------------------------- */

__PUBLF (PicOSNode, int, tcvp_control) (int phy, int opt, address arg) {
    1998:	4603      	mov	r3, r0
/*
 * Plugin version of interface control
 */
	verify_fph (phy, "tcv23");
    199a:	2b03      	cmp	r3, #3
__PUBLF (PicOSNode, int, tcvp_control) (int phy, int opt, address arg) {
    199c:	4608      	mov	r0, r1
    199e:	b510      	push	{r4, lr}
    19a0:	4611      	mov	r1, r2
	verify_fph (phy, "tcv23");
    19a2:	d803      	bhi.n	19ac <tcvp_control+0x14>
    19a4:	4a05      	ldr	r2, [pc, #20]	; (19bc <tcvp_control+0x24>)
    19a6:	f852 3023 	ldr.w	r3, [r2, r3, lsl #2]
    19aa:	b91b      	cbnz	r3, 19b4 <tcvp_control+0x1c>
    19ac:	200a      	movs	r0, #10
    19ae:	4904      	ldr	r1, [pc, #16]	; (19c0 <tcvp_control+0x28>)
    19b0:	f7fe fd5e 	bl	470 <__pi_syserror>
	return (physical [phy]) (opt, arg);
}
    19b4:	e8bd 4010 	ldmia.w	sp!, {r4, lr}
	return (physical [phy]) (opt, arg);
    19b8:	4718      	bx	r3
    19ba:	bf00      	nop
    19bc:	20000164 	andcs	r0, r0, r4, ror #2
    19c0:	0000430f 	andeq	r4, r0, pc, lsl #6

000019c4 <tcv_control>:
__PUBLF (PicOSNode, int, tcv_control) (int fd, int opt, address arg) {
    19c4:	b508      	push	{r3, lr}
	if (opt < 0) {
    19c6:	1e0b      	subs	r3, r1, #0
    19c8:	da11      	bge.n	19ee <tcv_control+0x2a>
		if (fd < 0)
    19ca:	2800      	cmp	r0, #0
    19cc:	db1f      	blt.n	1a0e <tcv_control+0x4a>
		if (opt == PHYSOPT_PLUGINFO) {
    19ce:	3301      	adds	r3, #1
    19d0:	d107      	bne.n	19e2 <tcv_control+0x1e>
			if (fd >= TCV_MAX_PLUGS)
    19d2:	2802      	cmp	r0, #2
    19d4:	dc1b      	bgt.n	1a0e <tcv_control+0x4a>
			if ((p = plugins [fd]) == NULL)
    19d6:	4b0f      	ldr	r3, [pc, #60]	; (1a14 <tcv_control+0x50>)
    19d8:	f853 0020 	ldr.w	r0, [r3, r0, lsl #2]
    19dc:	b100      	cbz	r0, 19e0 <tcv_control+0x1c>
			return p->tcv_info;
    19de:	69c0      	ldr	r0, [r0, #28]
}
    19e0:	bd08      	pop	{r3, pc}
		if (fd >= TCV_MAX_PHYS)
    19e2:	2802      	cmp	r0, #2
    19e4:	dc13      	bgt.n	1a0e <tcv_control+0x4a>
		return physinfo [fd];
    19e6:	4b0c      	ldr	r3, [pc, #48]	; (1a18 <tcv_control+0x54>)
    19e8:	f853 0020 	ldr.w	r0, [r3, r0, lsl #2]
    19ec:	e7f8      	b.n	19e0 <tcv_control+0x1c>
	verify_fds (fd, "tcv22");
    19ee:	2808      	cmp	r0, #8
    19f0:	d803      	bhi.n	19fa <tcv_control+0x36>
    19f2:	4b0a      	ldr	r3, [pc, #40]	; (1a1c <tcv_control+0x58>)
    19f4:	f853 3020 	ldr.w	r3, [r3, r0, lsl #2]
    19f8:	b91b      	cbnz	r3, 1a02 <tcv_control+0x3e>
    19fa:	200a      	movs	r0, #10
    19fc:	4908      	ldr	r1, [pc, #32]	; (1a20 <tcv_control+0x5c>)
    19fe:	f7fe fd37 	bl	470 <__pi_syserror>
	return tcvp_control (descriptors [fd] -> attpattern.b.phys, opt, arg);
    1a02:	7a58      	ldrb	r0, [r3, #9]
}
    1a04:	e8bd 4008 	ldmia.w	sp!, {r3, lr}
	return tcvp_control (descriptors [fd] -> attpattern.b.phys, opt, arg);
    1a08:	0940      	lsrs	r0, r0, #5
    1a0a:	f7ff bfc5 	b.w	1998 <tcvp_control>
			return 0;
    1a0e:	2000      	movs	r0, #0
    1a10:	e7e6      	b.n	19e0 <tcv_control+0x1c>
    1a12:	bf00      	nop
    1a14:	2000017c 	andcs	r0, r0, ip, ror r1
    1a18:	20000170 	andcs	r0, r0, r0, ror r1
    1a1c:	20000138 	andcs	r0, r0, r8, lsr r1
    1a20:	00004315 	andeq	r4, r0, r5, lsl r3

00001a24 <tcvp_new>:
 * Plugin-visible dispose
 */
	dispose (header (p), dsp);
}

__PUBLF (PicOSNode, address, tcvp_new) (int size, int dsp, int ses) {
    1a24:	b5f8      	push	{r3, r4, r5, r6, r7, lr}
    1a26:	b280      	uxth	r0, r0
    1a28:	4615      	mov	r5, r2
/*
 * Create a new packet with attributes inherited from the session
 */
	hblock_t *p;

	if (dsp != TCV_DSP_PASS) {
    1a2a:	460e      	mov	r6, r1
    1a2c:	b309      	cbz	r1, 1a72 <tcvp_new+0x4e>

		/* Session must be defined for that */
		if (ses == NONE)
    1a2e:	1c53      	adds	r3, r2, #1
    1a30:	d103      	bne.n	1a3a <tcvp_new+0x16>
			syserror (EREQPAR, "tcv26");
    1a32:	2003      	movs	r0, #3
    1a34:	4912      	ldr	r1, [pc, #72]	; (1a80 <tcvp_new+0x5c>)
		verify_fds (ses, "tcv27");
    1a36:	f7fe fd1b 	bl	470 <__pi_syserror>
    1a3a:	2a08      	cmp	r2, #8
    1a3c:	d803      	bhi.n	1a46 <tcvp_new+0x22>
    1a3e:	4f11      	ldr	r7, [pc, #68]	; (1a84 <tcvp_new+0x60>)
    1a40:	f857 3022 	ldr.w	r3, [r7, r2, lsl #2]
    1a44:	b913      	cbnz	r3, 1a4c <tcvp_new+0x28>
    1a46:	200a      	movs	r0, #10
    1a48:	490f      	ldr	r1, [pc, #60]	; (1a88 <tcvp_new+0x64>)
    1a4a:	e7f4      	b.n	1a36 <tcvp_new+0x12>
			TCV_LIMIT_XMT)) {
		       		// Drop
		    	   	return NULL;
		}
#endif
		if ((p = apb (size)) != NULL) {
    1a4c:	f7ff fdd0 	bl	15f0 <apb>
    1a50:	4604      	mov	r4, r0
    1a52:	b908      	cbnz	r0, 1a58 <tcvp_new+0x34>
			/* If you accidentally call tcv_endp on it */
			p->attributes.b.outgoing = 0;
			dispose (p, dsp);
			return (address)(p + 1);
		}
		return NULL;
    1a54:	2000      	movs	r0, #0

	if ((p = apb (size)) != NULL)
		return (address)(p + 1);
	else
		return NULL;
}
    1a56:	bdf8      	pop	{r3, r4, r5, r6, r7, pc}
			p->attributes = descriptors [ses] -> attpattern;
    1a58:	f857 3025 	ldr.w	r3, [r7, r5, lsl #2]
			dispose (p, dsp);
    1a5c:	4631      	mov	r1, r6
			p->attributes = descriptors [ses] -> attpattern;
    1a5e:	891b      	ldrh	r3, [r3, #8]
    1a60:	8143      	strh	r3, [r0, #10]
			p->attributes.b.outgoing = 0;
    1a62:	f36f 0341 	bfc	r3, #1, #1
    1a66:	7283      	strb	r3, [r0, #10]
			dispose (p, dsp);
    1a68:	f7ff fe08 	bl	167c <dispose>
			return (address)(p + 1);
    1a6c:	f104 000c 	add.w	r0, r4, #12
    1a70:	e7f1      	b.n	1a56 <tcvp_new+0x32>
	if ((p = apb (size)) != NULL)
    1a72:	f7ff fdbd 	bl	15f0 <apb>
    1a76:	2800      	cmp	r0, #0
    1a78:	d0ec      	beq.n	1a54 <tcvp_new+0x30>
		return (address)(p + 1);
    1a7a:	300c      	adds	r0, #12
    1a7c:	e7eb      	b.n	1a56 <tcvp_new+0x32>
    1a7e:	bf00      	nop
    1a80:	0000431b 	andeq	r4, r0, fp, lsl r3
    1a84:	20000138 	andcs	r0, r0, r8, lsr r1
    1a88:	00004321 	andeq	r4, r0, r1, lsr #6

00001a8c <tcvphy_reg>:
 * points to a function that controls (i.e., changes the options of) the
 * interface.
 */
	qhead_t *q;

	if (phy < 0 || phy >= TCV_MAX_PHYS || physical [phy] != NULL)
    1a8c:	2802      	cmp	r0, #2
__PUBLF (PicOSNode, int, tcvphy_reg) (int phy, ctrlfun_t ps, int info) {
    1a8e:	b510      	push	{r4, lr}
    1a90:	4604      	mov	r4, r0
	if (phy < 0 || phy >= TCV_MAX_PHYS || physical [phy] != NULL)
    1a92:	d803      	bhi.n	1a9c <tcvphy_reg+0x10>
    1a94:	4b0c      	ldr	r3, [pc, #48]	; (1ac8 <tcvphy_reg+0x3c>)
    1a96:	f853 0020 	ldr.w	r0, [r3, r0, lsl #2]
    1a9a:	b118      	cbz	r0, 1aa4 <tcvphy_reg+0x18>
		syserror (EREQPAR, "tcv28");
    1a9c:	2003      	movs	r0, #3
    1a9e:	490b      	ldr	r1, [pc, #44]	; (1acc <tcvphy_reg+0x40>)
	physical [phy] = ps;
	physinfo [phy] = info;

	oqueues [phy] = q = (qhead_t*) q_malloc (sizeof (qhead_t));
	if (q == NULL)
		syserror (EMALLOC, "tcv29");
    1aa0:	f7fe fce6 	bl	470 <__pi_syserror>
	physical [phy] = ps;
    1aa4:	f843 1024 	str.w	r1, [r3, r4, lsl #2]
	physinfo [phy] = info;
    1aa8:	4b09      	ldr	r3, [pc, #36]	; (1ad0 <tcvphy_reg+0x44>)
	oqueues [phy] = q = (qhead_t*) q_malloc (sizeof (qhead_t));
    1aaa:	2008      	movs	r0, #8
	physinfo [phy] = info;
    1aac:	f843 2024 	str.w	r2, [r3, r4, lsl #2]
	oqueues [phy] = q = (qhead_t*) q_malloc (sizeof (qhead_t));
    1ab0:	f7ff fc74 	bl	139c <__pi_malloc>
    1ab4:	4a07      	ldr	r2, [pc, #28]	; (1ad4 <tcvphy_reg+0x48>)
    1ab6:	f842 0024 	str.w	r0, [r2, r4, lsl #2]
	if (q == NULL)
    1aba:	b910      	cbnz	r0, 1ac2 <tcvphy_reg+0x36>
		syserror (EMALLOC, "tcv29");
    1abc:	2006      	movs	r0, #6
    1abe:	4906      	ldr	r1, [pc, #24]	; (1ad8 <tcvphy_reg+0x4c>)
    1ac0:	e7ee      	b.n	1aa0 <tcvphy_reg+0x14>
	q_init (q);
    1ac2:	e9c0 0000 	strd	r0, r0, [r0]
	/*
	 * Queue event identifier (which happens to be the queue pointer
	 * in disguise).
	 */
	return ptrtoint (q);
}
    1ac6:	bd10      	pop	{r4, pc}
    1ac8:	20000164 	andcs	r0, r0, r4, ror #2
    1acc:	00004327 	andeq	r4, r0, r7, lsr #6
    1ad0:	20000170 	andcs	r0, r0, r0, ror r1
    1ad4:	20000158 	andcs	r0, r0, r8, asr r1
    1ad8:	0000432d 	andeq	r4, r0, sp, lsr #6

00001adc <tcvphy_rcv>:

__PUBLF (PicOSNode, int, tcvphy_rcv) (int phy, address p, int len) {
    1adc:	e92d 4ff0 	stmdb	sp!, {r4, r5, r6, r7, r8, r9, sl, fp, lr}
 */
	int plg, dsp, ses;
	tcvadp_t ap;
	address c;

	verify_fph (phy, "tcv30");
    1ae0:	2803      	cmp	r0, #3
__PUBLF (PicOSNode, int, tcvphy_rcv) (int phy, address p, int len) {
    1ae2:	4605      	mov	r5, r0
    1ae4:	460f      	mov	r7, r1
    1ae6:	4614      	mov	r4, r2
    1ae8:	b085      	sub	sp, #20
	verify_fph (phy, "tcv30");
    1aea:	d803      	bhi.n	1af4 <tcvphy_rcv+0x18>
    1aec:	4b1e      	ldr	r3, [pc, #120]	; (1b68 <tcvphy_rcv+0x8c>)
    1aee:	f853 3020 	ldr.w	r3, [r3, r0, lsl #2]
    1af2:	b91b      	cbnz	r3, 1afc <tcvphy_rcv+0x20>
    1af4:	491d      	ldr	r1, [pc, #116]	; (1b6c <tcvphy_rcv+0x90>)
		 * (or fall back) plugins to be used when none of the
		 * "specific" plugins claims the packet.
		 */
		if (plugins [plg] == NULL)
			continue;
		sysassert (plugins [plg] -> tcv_rcv != NULL, "tcv31");
    1af6:	200a      	movs	r0, #10
    1af8:	f7fe fcba 	bl	470 <__pi_syserror>
    1afc:	4e1c      	ldr	r6, [pc, #112]	; (1b70 <tcvphy_rcv+0x94>)
		if ((dsp = plugins [plg] -> tcv_rcv (phy, p, len, &ses, &ap)) !=
    1afe:	f10d 080c 	add.w	r8, sp, #12
    1b02:	f1a6 0a08 	sub.w	sl, r6, #8
		if (plugins [plg] == NULL)
    1b06:	6833      	ldr	r3, [r6, #0]
    1b08:	46b1      	mov	r9, r6
    1b0a:	3e04      	subs	r6, #4
    1b0c:	b92b      	cbnz	r3, 1b1a <tcvphy_rcv+0x3e>
	for (plg = TCV_MAX_PLUGS-1; plg >= 0; plg--) {
    1b0e:	45ca      	cmp	sl, r9
    1b10:	d1f9      	bne.n	1b06 <tcvphy_rcv+0x2a>
	if (dsp == TCV_DSP_PASS || dsp == TCV_DSP_DROP) {
		/*
		 * Either no one is claiming the packet or the claimant says
		 * we should drop it.
		 */
		return 0;
    1b12:	2000      	movs	r0, #0
		return 0;

	memcpy ((char*)c, ((char*)p) + ap.head, len);

	return 1;
}
    1b14:	b005      	add	sp, #20
    1b16:	e8bd 8ff0 	ldmia.w	sp!, {r4, r5, r6, r7, r8, r9, sl, fp, pc}
		sysassert (plugins [plg] -> tcv_rcv != NULL, "tcv31");
    1b1a:	f8d3 b008 	ldr.w	fp, [r3, #8]
    1b1e:	f1bb 0f00 	cmp.w	fp, #0
    1b22:	d101      	bne.n	1b28 <tcvphy_rcv+0x4c>
    1b24:	4913      	ldr	r1, [pc, #76]	; (1b74 <tcvphy_rcv+0x98>)
    1b26:	e7e6      	b.n	1af6 <tcvphy_rcv+0x1a>
		if ((dsp = plugins [plg] -> tcv_rcv (phy, p, len, &ses, &ap)) !=
    1b28:	4639      	mov	r1, r7
    1b2a:	4622      	mov	r2, r4
    1b2c:	4628      	mov	r0, r5
    1b2e:	f8cd 8000 	str.w	r8, [sp]
    1b32:	ab02      	add	r3, sp, #8
    1b34:	47d8      	blx	fp
    1b36:	4601      	mov	r1, r0
    1b38:	2800      	cmp	r0, #0
    1b3a:	d0e8      	beq.n	1b0e <tcvphy_rcv+0x32>
	if (dsp == TCV_DSP_PASS || dsp == TCV_DSP_DROP) {
    1b3c:	2801      	cmp	r0, #1
    1b3e:	d0e8      	beq.n	1b12 <tcvphy_rcv+0x36>
	len -= (ap.head + ap.tail);
    1b40:	f8bd 200c 	ldrh.w	r2, [sp, #12]
    1b44:	f8bd 300e 	ldrh.w	r3, [sp, #14]
    1b48:	441a      	add	r2, r3
    1b4a:	1aa4      	subs	r4, r4, r2
	if ((c = tcvp_new (len, dsp, ses)) == NULL)
    1b4c:	4620      	mov	r0, r4
    1b4e:	9a02      	ldr	r2, [sp, #8]
    1b50:	f7ff ff68 	bl	1a24 <tcvp_new>
    1b54:	2800      	cmp	r0, #0
    1b56:	d0dc      	beq.n	1b12 <tcvphy_rcv+0x36>
	memcpy ((char*)c, ((char*)p) + ap.head, len);
    1b58:	f8bd 100c 	ldrh.w	r1, [sp, #12]
    1b5c:	4622      	mov	r2, r4
    1b5e:	4439      	add	r1, r7
    1b60:	f7ff fb37 	bl	11d2 <__pi_memcpy>
	return 1;
    1b64:	2001      	movs	r0, #1
    1b66:	e7d5      	b.n	1b14 <tcvphy_rcv+0x38>
    1b68:	20000164 	andcs	r0, r0, r4, ror #2
    1b6c:	00004333 	andeq	r4, r0, r3, lsr r3
    1b70:	20000184 	andcs	r0, r0, r4, lsl #3
    1b74:	00004339 	andeq	r4, r0, r9, lsr r3

00001b78 <tcvphy_get>:
 * Returns the packet pointer and its length.
 */
	qhead_t	*oq;
	hblock_t *b;

	verify_fph (phy, "tcv32");
    1b78:	2803      	cmp	r0, #3
__PUBLF (PicOSNode, address, tcvphy_get) (int phy, int *len) {
    1b7a:	b508      	push	{r3, lr}
	verify_fph (phy, "tcv32");
    1b7c:	d803      	bhi.n	1b86 <tcvphy_get+0xe>
    1b7e:	4b0b      	ldr	r3, [pc, #44]	; (1bac <tcvphy_get+0x34>)
    1b80:	f853 3020 	ldr.w	r3, [r3, r0, lsl #2]
    1b84:	b91b      	cbnz	r3, 1b8e <tcvphy_get+0x16>
    1b86:	200a      	movs	r0, #10
    1b88:	4909      	ldr	r1, [pc, #36]	; (1bb0 <tcvphy_get+0x38>)
    1b8a:	f7fe fc71 	bl	470 <__pi_syserror>

	oq = oqueues [phy];
    1b8e:	4b09      	ldr	r3, [pc, #36]	; (1bb4 <tcvphy_get+0x3c>)
    1b90:	f853 3020 	ldr.w	r3, [r3, r0, lsl #2]
	b = q_first (oq);
    1b94:	6818      	ldr	r0, [r3, #0]
	if (q_end (b, oq)) {
    1b96:	4283      	cmp	r3, r0
    1b98:	d005      	beq.n	1ba6 <tcvphy_get+0x2e>
		/* The queue is empty */
		return NULL;
	}

	*len = b->length;
    1b9a:	8903      	ldrh	r3, [r0, #8]
    1b9c:	600b      	str	r3, [r1, #0]
	deq (b);	// Dequeue the packet ...
    1b9e:	f7ff fd32 	bl	1606 <deq>
	deqtm (b);	// ... and clear its timer
	return (address) (b + 1);
    1ba2:	300c      	adds	r0, #12
}
    1ba4:	bd08      	pop	{r3, pc}
		return NULL;
    1ba6:	2000      	movs	r0, #0
    1ba8:	e7fc      	b.n	1ba4 <tcvphy_get+0x2c>
    1baa:	bf00      	nop
    1bac:	20000164 	andcs	r0, r0, r4, ror #2
    1bb0:	0000433f 	andeq	r4, r0, pc, lsr r3
    1bb4:	20000158 	andcs	r0, r0, r8, asr r1

00001bb8 <tcvphy_top>:
 * Returns the pointer to the first outgoing packet.
 */
	qhead_t *oq;
	hblock_t *b;

	verify_fph (phy, "tcv33");
    1bb8:	2803      	cmp	r0, #3
__PUBLF (PicOSNode, address, tcvphy_top) (int phy) {
    1bba:	b508      	push	{r3, lr}
	verify_fph (phy, "tcv33");
    1bbc:	d803      	bhi.n	1bc6 <tcvphy_top+0xe>
    1bbe:	4b08      	ldr	r3, [pc, #32]	; (1be0 <tcvphy_top+0x28>)
    1bc0:	f853 3020 	ldr.w	r3, [r3, r0, lsl #2]
    1bc4:	b91b      	cbnz	r3, 1bce <tcvphy_top+0x16>
    1bc6:	200a      	movs	r0, #10
    1bc8:	4906      	ldr	r1, [pc, #24]	; (1be4 <tcvphy_top+0x2c>)
    1bca:	f7fe fc51 	bl	470 <__pi_syserror>

	oq = oqueues [phy];
    1bce:	4b06      	ldr	r3, [pc, #24]	; (1be8 <tcvphy_top+0x30>)
    1bd0:	f853 3020 	ldr.w	r3, [r3, r0, lsl #2]
	b = q_first (oq);
    1bd4:	6818      	ldr	r0, [r3, #0]
	if (q_end (b, oq))
    1bd6:	4283      	cmp	r3, r0
		return NULL;
    1bd8:	bf0c      	ite	eq
    1bda:	2000      	moveq	r0, #0

	return (address)(b + 1);
    1bdc:	300c      	addne	r0, #12
}
    1bde:	bd08      	pop	{r3, pc}
    1be0:	20000164 	andcs	r0, r0, r4, ror #2
    1be4:	00004345 	andeq	r4, r0, r5, asr #6
    1be8:	20000158 	andcs	r0, r0, r8, asr r1

00001bec <tcvphy_end>:

__PUBLF (PicOSNode, void, tcvphy_end) (address pkt) {
    1bec:	b510      	push	{r4, lr}
/*
 * Marks the end of packet transmission
 */
	hblock_t *b = header (pkt);

	verify_plg (b, tcv_xmt, "tcv34");
    1bee:	f810 3c01 	ldrb.w	r3, [r0, #-1]
	hblock_t *b = header (pkt);
    1bf2:	f1a0 040c 	sub.w	r4, r0, #12
	verify_plg (b, tcv_xmt, "tcv34");
    1bf6:	f3c3 0382 	ubfx	r3, r3, #2, #3
    1bfa:	2b02      	cmp	r3, #2
    1bfc:	d805      	bhi.n	1c0a <tcvphy_end+0x1e>
    1bfe:	4a08      	ldr	r2, [pc, #32]	; (1c20 <tcvphy_end+0x34>)
    1c00:	f852 3023 	ldr.w	r3, [r2, r3, lsl #2]
    1c04:	b10b      	cbz	r3, 1c0a <tcvphy_end+0x1e>
    1c06:	695b      	ldr	r3, [r3, #20]
    1c08:	b91b      	cbnz	r3, 1c12 <tcvphy_end+0x26>
    1c0a:	200a      	movs	r0, #10
    1c0c:	4905      	ldr	r1, [pc, #20]	; (1c24 <tcvphy_end+0x38>)
    1c0e:	f7fe fc2f 	bl	470 <__pi_syserror>
	dispose (b, plugins [b->attributes.b.plugin] ->
    1c12:	4798      	blx	r3
    1c14:	4601      	mov	r1, r0
    1c16:	4620      	mov	r0, r4
		tcv_xmt (pkt));
}
    1c18:	e8bd 4010 	ldmia.w	sp!, {r4, lr}
	dispose (b, plugins [b->attributes.b.plugin] ->
    1c1c:	f7ff bd2e 	b.w	167c <dispose>
    1c20:	2000017c 	andcs	r0, r0, ip, ror r1
    1c24:	0000434b 	andeq	r4, r0, fp, asr #6

00001c28 <tcv_init>:
	tcv_tservice = create TCVTimerService;
	tcv_tservice -> _pp_apid_ ();
#endif	/* __SMURPH__ */

#endif	/* TCV_TIMERS */
}
    1c28:	4770      	bx	lr

00001c2a <NmiSR>:
NmiSRHandler(void)
{
    //
    // Enter an infinite loop.
    //
    while(1)
    1c2a:	e7fe      	b.n	1c2a <NmiSR>

00001c2c <FaultISR>:
FaultISRHandler(void)
{
    //
    // Enter an infinite loop.
    //
    while(1)
    1c2c:	e7fe      	b.n	1c2c <FaultISR>

00001c2e <AONIntHandler>:
IntDefaultHandler(void)
{
    //
    // Go into an infinite loop.
    //
    while(1)
    1c2e:	e7fe      	b.n	1c2e <AONIntHandler>

00001c30 <ResetISR>:
{
    1c30:	b508      	push	{r3, lr}
    SetupTrimDevice();
    1c32:	f001 fcdf 	bl	35f4 <NOROM_SetupTrimDevice>
    for(pui32Dest = &_data; pui32Dest < &_edata; )
    1c36:	4b0c      	ldr	r3, [pc, #48]	; (1c68 <zero_loop+0x20>)
    pui32Src = &_etext;
    1c38:	4a0c      	ldr	r2, [pc, #48]	; (1c6c <zero_loop+0x24>)
    for(pui32Dest = &_data; pui32Dest < &_edata; )
    1c3a:	490d      	ldr	r1, [pc, #52]	; (1c70 <zero_loop+0x28>)
    1c3c:	428b      	cmp	r3, r1
    1c3e:	d30d      	bcc.n	1c5c <zero_loop+0x14>
    __asm("    ldr     r0, =_bss\n"
    1c40:	480c      	ldr	r0, [pc, #48]	; (1c74 <zero_loop+0x2c>)
    1c42:	490d      	ldr	r1, [pc, #52]	; (1c78 <zero_loop+0x30>)
    1c44:	f04f 0200 	mov.w	r2, #0

00001c48 <zero_loop>:
    1c48:	4288      	cmp	r0, r1
    1c4a:	bfb8      	it	lt
    1c4c:	f840 2b04 	strlt.w	r2, [r0], #4
    1c50:	dbfa      	blt.n	1c48 <zero_loop>
   main();
    1c52:	f7ff f90f 	bl	e74 <main>
    FaultISR();
    1c56:	f7ff ffe9 	bl	1c2c <FaultISR>
}
    1c5a:	bd08      	pop	{r3, pc}
        *pui32Dest++ = *pui32Src++;
    1c5c:	f852 0b04 	ldr.w	r0, [r2], #4
    1c60:	f843 0b04 	str.w	r0, [r3], #4
    1c64:	e7ea      	b.n	1c3c <ResetISR+0xc>
    1c66:	bf00      	nop
    1c68:	20000000 	andcs	r0, r0, r0
    1c6c:	00004d54 	andeq	r4, r0, r4, asr sp
    1c70:	2000010c 	andcs	r0, r0, ip, lsl #2
    1c74:	2000010c 	andcs	r0, r0, ip, lsl #2
    1c78:	20000234 	andcs	r0, r0, r4, lsr r2

00001c7c <get_byte>:

static word	left;

// ============================================================================

static byte get_byte () {
    1c7c:	2308      	movs	r3, #8

	int i;
	byte b;

	for (b = 0, i = 0; i < 8; i++) {
    1c7e:	2000      	movs	r0, #0
    HWREG( GPIO_BASE + GPIO_O_DOUTSET31_0 ) = ( 1 << dioNumber );
    1c80:	f44f 6280 	mov.w	r2, #1024	; 0x400
static byte get_byte () {
    1c84:	b570      	push	{r4, r5, r6, lr}
    HWREG( GPIO_BASE + GPIO_O_DOUTCLR31_0 ) = ( 1 << dioNumber );
    1c86:	4907      	ldr	r1, [pc, #28]	; (1ca4 <get_byte+0x28>)
    return (( HWREG( GPIO_BASE + GPIO_O_DIN31_0 ) >> dioNumber ) & 1 );
    1c88:	4d07      	ldr	r5, [pc, #28]	; (1ca8 <get_byte+0x2c>)
    HWREG( GPIO_BASE + GPIO_O_DOUTSET31_0 ) = ( 1 << dioNumber );
    1c8a:	4c08      	ldr	r4, [pc, #32]	; (1cac <get_byte+0x30>)
    return (( HWREG( GPIO_BASE + GPIO_O_DIN31_0 ) >> dioNumber ) & 1 );
    1c8c:	682e      	ldr	r6, [r5, #0]
		b <<= 1;
    1c8e:	0040      	lsls	r0, r0, #1
		if (ee_inp)
    1c90:	05f6      	lsls	r6, r6, #23
		b <<= 1;
    1c92:	b2c0      	uxtb	r0, r0
			b |= 1;
    1c94:	bf48      	it	mi
    1c96:	f040 0001 	orrmi.w	r0, r0, #1
	for (b = 0, i = 0; i < 8; i++) {
    1c9a:	3b01      	subs	r3, #1
    HWREG( GPIO_BASE + GPIO_O_DOUTSET31_0 ) = ( 1 << dioNumber );
    1c9c:	6022      	str	r2, [r4, #0]
    HWREG( GPIO_BASE + GPIO_O_DOUTCLR31_0 ) = ( 1 << dioNumber );
    1c9e:	600a      	str	r2, [r1, #0]
    1ca0:	d1f4      	bne.n	1c8c <get_byte+0x10>
		ee_clkh;
		ee_clkl;
	}

	return b;
}
    1ca2:	bd70      	pop	{r4, r5, r6, pc}
    1ca4:	400220a0 	andmi	r2, r2, r0, lsr #1
    1ca8:	400220c0 	andmi	r2, r2, r0, asr #1
    1cac:	40022090 	mulmi	r2, r0, r0

00001cb0 <put_byte>:

static void put_byte (byte b) {
    1cb0:	b530      	push	{r4, r5, lr}
    1cb2:	2308      	movs	r3, #8
    1cb4:	f44f 7500 	mov.w	r5, #512	; 0x200
    HWREG( GPIO_BASE + GPIO_O_DOUTSET31_0 ) = ( 1 << dioNumber );
    1cb8:	f44f 6180 	mov.w	r1, #1024	; 0x400
    1cbc:	4c06      	ldr	r4, [pc, #24]	; (1cd8 <put_byte+0x28>)
    1cbe:	4a07      	ldr	r2, [pc, #28]	; (1cdc <put_byte+0x2c>)

	int i;

	for (i = 0; i < 8; i++) {
		if (b & 0x80)
    1cc0:	f010 0f80 	tst.w	r0, #128	; 0x80
    1cc4:	bf14      	ite	ne
    1cc6:	6025      	strne	r5, [r4, #0]
    HWREG( GPIO_BASE + GPIO_O_DOUTCLR31_0 ) = ( 1 << dioNumber );
    1cc8:	6015      	streq	r5, [r2, #0]
			ee_outh;
		else
			ee_outl;
		ee_clkh;
		ee_clkl;
		b <<= 1;
    1cca:	0040      	lsls	r0, r0, #1
	for (i = 0; i < 8; i++) {
    1ccc:	3b01      	subs	r3, #1
    HWREG( GPIO_BASE + GPIO_O_DOUTSET31_0 ) = ( 1 << dioNumber );
    1cce:	6021      	str	r1, [r4, #0]
		b <<= 1;
    1cd0:	b2c0      	uxtb	r0, r0
    HWREG( GPIO_BASE + GPIO_O_DOUTCLR31_0 ) = ( 1 << dioNumber );
    1cd2:	6011      	str	r1, [r2, #0]
	for (i = 0; i < 8; i++) {
    1cd4:	d1f4      	bne.n	1cc0 <put_byte+0x10>
	}
}
    1cd6:	bd30      	pop	{r4, r5, pc}
    1cd8:	40022090 	mulmi	r2, r0, r0
    1cdc:	400220a0 	andmi	r2, r2, r0, lsr #1

00001ce0 <cmd_0>:
    HWREGBITW( GPIO_BASE + GPIO_O_DOE31_0, dioNumber ) = outputEnableValue;
    1ce0:	2301      	movs	r3, #1

// ============================================================================

static void cmd_0 (byte cmd) {
    1ce2:	b510      	push	{r4, lr}
    1ce4:	4c03      	ldr	r4, [pc, #12]	; (1cf4 <cmd_0+0x14>)
    1ce6:	6023      	str	r3, [r4, #0]

	ee_start;
	put_byte (cmd);
    1ce8:	f7ff ffe2 	bl	1cb0 <put_byte>
    1cec:	2300      	movs	r3, #0
    1cee:	6023      	str	r3, [r4, #0]
	ee_stop;
}
    1cf0:	bd10      	pop	{r4, pc}
    1cf2:	bf00      	nop
    1cf4:	42441a50 	submi	r1, r4, #80, 20	; 0x50000

00001cf8 <wwait>:
	r = get_byte ();
	ee_stop;
	return r;
}

static void wwait (word st, word del) {
    1cf8:	e92d 41f0 	stmdb	sp!, {r4, r5, r6, r7, r8, lr}
    1cfc:	4604      	mov	r4, r0
    1cfe:	460d      	mov	r5, r1
    1d00:	2701      	movs	r7, #1
//
// Wait for write to complete
//
	while (dopen && (rdsr () & 1)) {
    1d02:	f8df 8044 	ldr.w	r8, [pc, #68]	; 1d48 <wwait+0x50>
    1d06:	4e0f      	ldr	r6, [pc, #60]	; (1d44 <wwait+0x4c>)
    1d08:	f898 3000 	ldrb.w	r3, [r8]
    1d0c:	b14b      	cbz	r3, 1d22 <wwait+0x2a>
	put_byte (CMD_RDSR);
    1d0e:	2005      	movs	r0, #5
    1d10:	6037      	str	r7, [r6, #0]
    1d12:	f7ff ffcd 	bl	1cb0 <put_byte>
	r = get_byte ();
    1d16:	f7ff ffb1 	bl	1c7c <get_byte>
    1d1a:	2300      	movs	r3, #0
    1d1c:	6033      	str	r3, [r6, #0]
	while (dopen && (rdsr () & 1)) {
    1d1e:	07c3      	lsls	r3, r0, #31
    1d20:	d401      	bmi.n	1d26 <wwait+0x2e>
		else {
			delay (del, st);
			release;
		}
	}
}
    1d22:	e8bd 81f0 	ldmia.w	sp!, {r4, r5, r6, r7, r8, pc}
		if (st == WNONE)
    1d26:	f64f 73ff 	movw	r3, #65535	; 0xffff
    1d2a:	429c      	cmp	r4, r3
    1d2c:	d103      	bne.n	1d36 <wwait+0x3e>
			mdelay (1);
    1d2e:	2001      	movs	r0, #1
    1d30:	f7fe fb4a 	bl	3c8 <mdelay>
    1d34:	e7e8      	b.n	1d08 <wwait+0x10>
			delay (del, st);
    1d36:	4621      	mov	r1, r4
    1d38:	4628      	mov	r0, r5
    1d3a:	f7ff fa0d 	bl	1158 <delay>
			release;
    1d3e:	f7fe ff55 	bl	bec <__pi_release>
    1d42:	bf00      	nop
    1d44:	42441a50 	submi	r1, r4, #80, 20	; 0x50000
    1d48:	20000188 	andcs	r0, r0, r8, lsl #3

00001d4c <ready>:
		dopen = 0;
		ee_bring_down;
	}
}

static void ready () {
    1d4c:	b5f8      	push	{r3, r4, r5, r6, r7, lr}
//
// Called before a new operation to make sure the chip is ready
//
	if (dopen) {
    1d4e:	4d0c      	ldr	r5, [pc, #48]	; (1d80 <ready+0x34>)
    1d50:	782f      	ldrb	r7, [r5, #0]
    1d52:	b147      	cbz	r7, 1d66 <ready+0x1a>
		// The device is open
		wwait (WNONE, 1);
    1d54:	2101      	movs	r1, #1
    1d56:	f64f 70ff 	movw	r0, #65535	; 0xffff
    1d5a:	f7ff ffcd 	bl	1cf8 <wwait>
	} else {
		copen ();
		dopen = DOPEN_TEMP;
	}

	dstat = 0;
    1d5e:	2200      	movs	r2, #0
    1d60:	4b08      	ldr	r3, [pc, #32]	; (1d84 <ready+0x38>)
    1d62:	701a      	strb	r2, [r3, #0]
}
    1d64:	bdf8      	pop	{r3, r4, r5, r6, r7, pc}
    1d66:	2401      	movs	r4, #1
    1d68:	4e07      	ldr	r6, [pc, #28]	; (1d88 <ready+0x3c>)
	udelay (1);
    1d6a:	4620      	mov	r0, r4
    1d6c:	6034      	str	r4, [r6, #0]
    1d6e:	f7fe fb15 	bl	39c <udelay>
	udelay (1);
    1d72:	4620      	mov	r0, r4
    1d74:	6037      	str	r7, [r6, #0]
    1d76:	f7fe fb11 	bl	39c <udelay>
		dopen = DOPEN_TEMP;
    1d7a:	2302      	movs	r3, #2
    1d7c:	702b      	strb	r3, [r5, #0]
    1d7e:	e7ee      	b.n	1d5e <ready+0x12>
    1d80:	20000188 	andcs	r0, r0, r8, lsl #3
    1d84:	20000189 	andcs	r0, r0, r9, lsl #3
    1d88:	42441a50 	submi	r1, r4, #80, 20	; 0x50000

00001d8c <cclose>:
static void cclose () {
    1d8c:	b510      	push	{r4, lr}
	if (dopen == DOPEN_TEMP) {
    1d8e:	4c07      	ldr	r4, [pc, #28]	; (1dac <cclose+0x20>)
    1d90:	7823      	ldrb	r3, [r4, #0]
    1d92:	2b02      	cmp	r3, #2
    1d94:	d109      	bne.n	1daa <cclose+0x1e>
		wwait (WNONE, 1);
    1d96:	2101      	movs	r1, #1
    1d98:	f64f 70ff 	movw	r0, #65535	; 0xffff
    1d9c:	f7ff ffac 	bl	1cf8 <wwait>
	cmd_0 (CMD_DP);
    1da0:	20b9      	movs	r0, #185	; 0xb9
    1da2:	f7ff ff9d 	bl	1ce0 <cmd_0>
		dopen = 0;
    1da6:	2300      	movs	r3, #0
    1da8:	7023      	strb	r3, [r4, #0]
}
    1daa:	bd10      	pop	{r4, pc}
    1dac:	20000188 	andcs	r0, r0, r8, lsl #3

00001db0 <ee_open>:

// ============================================================================

word ee_open () {
    1db0:	b508      	push	{r3, lr}
//
// Open (for more than one operation)
//
	ready ();
    1db2:	f7ff ffcb 	bl	1d4c <ready>
	dopen = DOPEN_PERM;
    1db6:	2201      	movs	r2, #1
    1db8:	4b01      	ldr	r3, [pc, #4]	; (1dc0 <ee_open+0x10>)
		ee_stop;
		diag ("ID: %x %x %x", r [0], r [1], r [2]);
	}
#endif
	return 0;
}
    1dba:	2000      	movs	r0, #0
	dopen = DOPEN_PERM;
    1dbc:	701a      	strb	r2, [r3, #0]
}
    1dbe:	bd08      	pop	{r3, pc}
    1dc0:	20000188 	andcs	r0, r0, r8, lsl #3

00001dc4 <ee_close>:

void ee_close () {

	if (dopen) {
    1dc4:	4b03      	ldr	r3, [pc, #12]	; (1dd4 <ee_close+0x10>)
    1dc6:	781a      	ldrb	r2, [r3, #0]
    1dc8:	b11a      	cbz	r2, 1dd2 <ee_close+0xe>
		dopen = DOPEN_TEMP;
    1dca:	2202      	movs	r2, #2
    1dcc:	701a      	strb	r2, [r3, #0]
		cclose ();
    1dce:	f7ff bfdd 	b.w	1d8c <cclose>
	}
}
    1dd2:	4770      	bx	lr
    1dd4:	20000188 	andcs	r0, r0, r8, lsl #3

00001dd8 <ser_in>:

extern char *__inpline;

procname (__inserial);

int ser_in (word st, char *buf, int len) {
    1dd8:	b5f8      	push	{r3, r4, r5, r6, r7, lr}
    1dda:	4604      	mov	r4, r0
    1ddc:	460f      	mov	r7, r1
/* ======= */
/* Direct */
/* ====== */
	int prcs;

	if (len == 0)
    1dde:	4615      	mov	r5, r2
    1de0:	b37a      	cbz	r2, 1e42 <ser_in+0x6a>
		// Just in case
		return 0;

	if (__inpline == NULL) {
    1de2:	4e19      	ldr	r6, [pc, #100]	; (1e48 <ser_in+0x70>)
    1de4:	6830      	ldr	r0, [r6, #0]
    1de6:	b988      	cbnz	r0, 1e0c <ser_in+0x34>
		if ((prcs = running (__inserial)) == 0) {
    1de8:	4818      	ldr	r0, [pc, #96]	; (1e4c <ser_in+0x74>)
    1dea:	f7ff f9d1 	bl	1190 <running>
    1dee:	b948      	cbnz	r0, 1e04 <ser_in+0x2c>
			prcs = runthread (__inserial);
    1df0:	4601      	mov	r1, r0
    1df2:	4816      	ldr	r0, [pc, #88]	; (1e4c <ser_in+0x74>)
    1df4:	f7ff fb26 	bl	1444 <__pi_fork>
			if (prcs == 0) {
    1df8:	b920      	cbnz	r0, 1e04 <ser_in+0x2c>
				npwait (st);
    1dfa:	4620      	mov	r0, r4
    1dfc:	f7ff fb3c 	bl	1478 <__pi_waitmem>
				release;
			}
		}
		join (prcs, st);
		release;
    1e00:	f7fe fef4 	bl	bec <__pi_release>
		join (prcs, st);
    1e04:	4621      	mov	r1, r4
    1e06:	f7ff f995 	bl	1134 <__pi_join>
    1e0a:	e7f9      	b.n	1e00 <ser_in+0x28>
	}

	/* Input available */
	if (*__inpline == NULL) // bin cmd
    1e0c:	7803      	ldrb	r3, [r0, #0]
    1e0e:	b9a3      	cbnz	r3, 1e3a <ser_in+0x62>
		prcs = __inpline[1] + 3; // 0x00, len, 0x04
    1e10:	7844      	ldrb	r4, [r0, #1]
    1e12:	3403      	adds	r4, #3
	else
		prcs = strlen (__inpline);

	if (prcs >= len)
    1e14:	42ac      	cmp	r4, r5
		prcs = len-1;
    1e16:	bfa8      	it	ge
    1e18:	f105 34ff 	addge.w	r4, r5, #4294967295	; 0xffffffff

	memcpy (buf, __inpline, prcs);
    1e1c:	4622      	mov	r2, r4
    1e1e:	4638      	mov	r0, r7
    1e20:	6831      	ldr	r1, [r6, #0]
    1e22:	f7ff f9d6 	bl	11d2 <__pi_memcpy>
	ufree (__inpline);
    1e26:	6830      	ldr	r0, [r6, #0]
    1e28:	f7ff fa6c 	bl	1304 <__pi_free>
	__inpline = NULL;
    1e2c:	2300      	movs	r3, #0
    1e2e:	6033      	str	r3, [r6, #0]
	if (*buf) // if it's NULL, it's a bin cmd
    1e30:	783a      	ldrb	r2, [r7, #0]
    1e32:	b102      	cbz	r2, 1e36 <ser_in+0x5e>
		buf [prcs] = '\0';
    1e34:	553b      	strb	r3, [r7, r4]
	return prcs;
}
    1e36:	4620      	mov	r0, r4
    1e38:	bdf8      	pop	{r3, r4, r5, r6, r7, pc}
		prcs = strlen (__inpline);
    1e3a:	f7ff f9bb 	bl	11b4 <__pi_strlen>
    1e3e:	4604      	mov	r4, r0
    1e40:	e7e8      	b.n	1e14 <ser_in+0x3c>
		return 0;
    1e42:	4614      	mov	r4, r2
    1e44:	e7f7      	b.n	1e36 <ser_in+0x5e>
    1e46:	bf00      	nop
    1e48:	200001d4 	ldrdcs	r0, [r0], -r4
    1e4c:	000028e9 	andeq	r2, r0, r9, ror #17

00001e50 <ser_outf>:

//+++ "__outserial.c"

procname (__outserial);

int ser_outf (word st, const char *m, ...) {
    1e50:	b40e      	push	{r1, r2, r3}
    1e52:	b577      	push	{r0, r1, r2, r4, r5, r6, lr}
    1e54:	4604      	mov	r4, r0

	int prcs;
	char *buf;
	va_list ap;

	if ((prcs = running (__outserial)) != 0) {
    1e56:	4812      	ldr	r0, [pc, #72]	; (1ea0 <ser_outf+0x50>)
    1e58:	f7ff f99a 	bl	1190 <running>
    1e5c:	4606      	mov	r6, r0
    1e5e:	b120      	cbz	r0, 1e6a <ser_outf+0x1a>
		/* We have to wait */
		join (prcs, st);
    1e60:	4621      	mov	r1, r4
    1e62:	f7ff f967 	bl	1134 <__pi_join>
	if ((buf = vform (NULL, m, ap)) == NULL) {
		/*
		 * This means that we are out of memory
		 */
		umwait (st);
		release;
    1e66:	f7fe fec1 	bl	bec <__pi_release>
	va_start (ap, m);
    1e6a:	aa08      	add	r2, sp, #32
	if ((buf = vform (NULL, m, ap)) == NULL) {
    1e6c:	9907      	ldr	r1, [sp, #28]
	va_start (ap, m);
    1e6e:	9201      	str	r2, [sp, #4]
	if ((buf = vform (NULL, m, ap)) == NULL) {
    1e70:	f000 fef0 	bl	2c54 <vform>
    1e74:	4605      	mov	r5, r0
    1e76:	b918      	cbnz	r0, 1e80 <ser_outf+0x30>
		umwait (st);
    1e78:	4620      	mov	r0, r4
    1e7a:	f7ff fafd 	bl	1478 <__pi_waitmem>
    1e7e:	e7f2      	b.n	1e66 <ser_outf+0x16>
	}

	if (runstrand (__outserial, buf) == 0) {
    1e80:	4601      	mov	r1, r0
    1e82:	4807      	ldr	r0, [pc, #28]	; (1ea0 <ser_outf+0x50>)
    1e84:	f7ff fade 	bl	1444 <__pi_fork>
    1e88:	b918      	cbnz	r0, 1e92 <ser_outf+0x42>
		ufree (buf);
    1e8a:	4628      	mov	r0, r5
    1e8c:	f7ff fa3a 	bl	1304 <__pi_free>
		npwait (st);
    1e90:	e7f2      	b.n	1e78 <ser_outf+0x28>
		release;
	}

	return 0;
}
    1e92:	4630      	mov	r0, r6
    1e94:	b003      	add	sp, #12
    1e96:	e8bd 4070 	ldmia.w	sp!, {r4, r5, r6, lr}
    1e9a:	b003      	add	sp, #12
    1e9c:	4770      	bx	lr
    1e9e:	bf00      	nop
    1ea0:	00002879 	andeq	r2, r0, r9, ror r8

00001ea4 <ser_inf>:

extern char *__inpline;

procname (__inserial);

int ser_inf (word st, const char *fmt, ...) {
    1ea4:	b40e      	push	{r1, r2, r3}
    1ea6:	b533      	push	{r0, r1, r4, r5, lr}
    1ea8:	9905      	ldr	r1, [sp, #20]
    1eaa:	4604      	mov	r4, r0
/* ========= */

	int prcs;
	va_list	ap;

	if (fmt == NULL)
    1eac:	b321      	cbz	r1, 1ef8 <ser_inf+0x54>
		return 0;

	if (__inpline == NULL) {
    1eae:	4d13      	ldr	r5, [pc, #76]	; (1efc <ser_inf+0x58>)
    1eb0:	6828      	ldr	r0, [r5, #0]
    1eb2:	b988      	cbnz	r0, 1ed8 <ser_inf+0x34>
		if ((prcs = running (__inserial)) == 0) {
    1eb4:	4812      	ldr	r0, [pc, #72]	; (1f00 <ser_inf+0x5c>)
    1eb6:	f7ff f96b 	bl	1190 <running>
    1eba:	b948      	cbnz	r0, 1ed0 <ser_inf+0x2c>
			prcs = runthread (__inserial);
    1ebc:	4601      	mov	r1, r0
    1ebe:	4810      	ldr	r0, [pc, #64]	; (1f00 <ser_inf+0x5c>)
    1ec0:	f7ff fac0 	bl	1444 <__pi_fork>
			if (prcs == 0) {
    1ec4:	b920      	cbnz	r0, 1ed0 <ser_inf+0x2c>
				npwait (st);
    1ec6:	4620      	mov	r0, r4
    1ec8:	f7ff fad6 	bl	1478 <__pi_waitmem>
				release;
			}
		}
		join (prcs, st);
		release;
    1ecc:	f7fe fe8e 	bl	bec <__pi_release>
		join (prcs, st);
    1ed0:	4621      	mov	r1, r4
    1ed2:	f7ff f92f 	bl	1134 <__pi_join>
    1ed6:	e7f9      	b.n	1ecc <ser_inf+0x28>
	}

	/* Input available */
	va_start (ap, fmt);
    1ed8:	aa06      	add	r2, sp, #24
    1eda:	9201      	str	r2, [sp, #4]

	prcs = vscan (__inpline, fmt, ap);
    1edc:	f000 fee2 	bl	2ca4 <vscan>
    1ee0:	4604      	mov	r4, r0

	ufree (__inpline);
    1ee2:	6828      	ldr	r0, [r5, #0]
    1ee4:	f7ff fa0e 	bl	1304 <__pi_free>
	__inpline = NULL;
    1ee8:	2300      	movs	r3, #0
    1eea:	602b      	str	r3, [r5, #0]

	return prcs;
}
    1eec:	4620      	mov	r0, r4
    1eee:	b002      	add	sp, #8
    1ef0:	e8bd 4030 	ldmia.w	sp!, {r4, r5, lr}
    1ef4:	b003      	add	sp, #12
    1ef6:	4770      	bx	lr
		return 0;
    1ef8:	460c      	mov	r4, r1
    1efa:	e7f7      	b.n	1eec <ser_inf+0x48>
    1efc:	200001d4 	ldrdcs	r0, [r0], -r4
    1f00:	000028e9 	andeq	r2, r0, r9, ror #17

00001f04 <plugch>:
//
// Insert the channel number as the right frequency in the proper place
//
	RF_cmdFs.frequency = 
		// Channel number is just the megahertz increment
		RF_cmdPropRadioDivSetup.centerFreq = CC1350_BASEFREQ + channel;
    1f04:	4b04      	ldr	r3, [pc, #16]	; (1f18 <plugch+0x14>)
    1f06:	4a05      	ldr	r2, [pc, #20]	; (1f1c <plugch+0x18>)
    1f08:	781b      	ldrb	r3, [r3, #0]
    1f0a:	f503 7359 	add.w	r3, r3, #868	; 0x364
    1f0e:	8413      	strh	r3, [r2, #32]
	RF_cmdFs.frequency = 
    1f10:	4a03      	ldr	r2, [pc, #12]	; (1f20 <plugch+0x1c>)
    1f12:	81d3      	strh	r3, [r2, #14]
}
    1f14:	4770      	bx	lr
    1f16:	bf00      	nop
    1f18:	2000018c 	andcs	r0, r0, ip, lsl #3
    1f1c:	20000054 	andcs	r0, r0, r4, asr r0
    1f20:	2000003c 	andcs	r0, r0, ip, lsr r0

00001f24 <option>:

	// Make rbuffl exactly equal to max payload length
	rbuffl -= 2;
}

static int option (int opt, address val) {
    1f24:	b570      	push	{r4, r5, r6, lr}
    1f26:	460c      	mov	r4, r1
    1f28:	281a      	cmp	r0, #26
    1f2a:	f200 80a4 	bhi.w	2076 <option+0x152>
    1f2e:	e8df f000 	tbb	[pc, r0]
    1f32:	3939390e 	ldmdbcc	r9!, {r1, r2, r3, r8, fp, ip, sp}
    1f36:	674f3014 	smlaldvs	r3, pc, r4, r0	; <UNPREDICTABLE>
    1f3a:	3b35445b 	blcc	d530ae <__ccfg+0xd33106>
    1f3e:	a2a2a2a2 	adcge	sl, r2, #536870922	; 0x2000000a
    1f42:	777aa2a2 	ldrbvc	sl, [sl, -r2, lsr #5]!
    1f46:	898ba2a2 	stmibhi	fp, {r1, r5, r7, r9, sp, pc}
    1f4a:	009aa241 	addseq	sl, sl, r1, asr #4

	switch (opt) {

		case PHYSOPT_STATUS:

			ret = 2 | ((dstate & DSTATE_RXON) != 0);
    1f4e:	4b4c      	ldr	r3, [pc, #304]	; (2080 <option+0x15c>)
    1f50:	7818      	ldrb	r0, [r3, #0]
    1f52:	f000 0001 	and.w	r0, r0, #1
			ret = (int) statid;
			goto RVal;

		case PHYSOPT_GETMAXPL:

			ret = rbuffl + 2;
    1f56:	3002      	adds	r0, #2
			goto RVal;
    1f58:	e028      	b.n	1fac <option+0x88>
			_BIS (dstate, DSTATE_RXON);
    1f5a:	4a49      	ldr	r2, [pc, #292]	; (2080 <option+0x15c>)
    1f5c:	7813      	ldrb	r3, [r2, #0]
    1f5e:	f043 0301 	orr.w	r3, r3, #1
    1f62:	7013      	strb	r3, [r2, #0]
	int ret = 0;
    1f64:	2000      	movs	r0, #0
			p_trigger (drvprcs, qevent);
    1f66:	4b47      	ldr	r3, [pc, #284]	; (2084 <option+0x160>)
    1f68:	6819      	ldr	r1, [r3, #0]
    1f6a:	4b47      	ldr	r3, [pc, #284]	; (2088 <option+0x164>)
    1f6c:	460c      	mov	r4, r1
    1f6e:	681d      	ldr	r5, [r3, #0]
    1f70:	2300      	movs	r3, #0
    1f72:	f834 2b10 	ldrh.w	r2, [r4], #16
    1f76:	f002 0207 	and.w	r2, r2, #7
    1f7a:	429a      	cmp	r2, r3
    1f7c:	dd08      	ble.n	1f90 <option+0x6c>
    1f7e:	f854 6033 	ldr.w	r6, [r4, r3, lsl #3]
    1f82:	3301      	adds	r3, #1
    1f84:	42ae      	cmp	r6, r5
    1f86:	d1f8      	bne.n	1f7a <option+0x56>
    1f88:	eb01 03c3 	add.w	r3, r1, r3, lsl #3
    1f8c:	889b      	ldrh	r3, [r3, #4]
    1f8e:	800b      	strh	r3, [r1, #0]
	return ret;
RVal:
	if (val != NULL)
		*val = ret;
	goto RRet;
}
    1f90:	bd70      	pop	{r4, r5, r6, pc}
			_BIC (dstate, DSTATE_RXON);
    1f92:	4a3b      	ldr	r2, [pc, #236]	; (2080 <option+0x15c>)
    1f94:	7813      	ldrb	r3, [r2, #0]
    1f96:	f023 0301 	bic.w	r3, r3, #1
    1f9a:	e7e2      	b.n	1f62 <option+0x3e>
			statid = (val == NULL) ? 0 : *val;
    1f9c:	b101      	cbz	r1, 1fa0 <option+0x7c>
    1f9e:	880c      	ldrh	r4, [r1, #0]
    1fa0:	4b3a      	ldr	r3, [pc, #232]	; (208c <option+0x168>)
    1fa2:	801c      	strh	r4, [r3, #0]
	int ret = 0;
    1fa4:	2000      	movs	r0, #0
    1fa6:	e7f3      	b.n	1f90 <option+0x6c>
			ret = (int) statid;
    1fa8:	4b38      	ldr	r3, [pc, #224]	; (208c <option+0x168>)
    1faa:	8818      	ldrh	r0, [r3, #0]
	if (val != NULL)
    1fac:	2c00      	cmp	r4, #0
    1fae:	d0ef      	beq.n	1f90 <option+0x6c>
		*val = ret;
    1fb0:	8020      	strh	r0, [r4, #0]
	return ret;
    1fb2:	e7ed      	b.n	1f90 <option+0x6c>
			ret = rbuffl + 2;
    1fb4:	4b36      	ldr	r3, [pc, #216]	; (2090 <option+0x16c>)
    1fb6:	7818      	ldrb	r0, [r3, #0]
    1fb8:	e7cd      	b.n	1f56 <option+0x32>
				memcpy (val, &rxstat,
    1fba:	220c      	movs	r2, #12
			if (val != NULL) {
    1fbc:	b121      	cbz	r1, 1fc8 <option+0xa4>
				memcpy (val, &rxstat,
    1fbe:	4620      	mov	r0, r4
    1fc0:	4934      	ldr	r1, [pc, #208]	; (2094 <option+0x170>)
    1fc2:	f7ff f906 	bl	11d2 <__pi_memcpy>
    1fc6:	e7ed      	b.n	1fa4 <option+0x80>
				memset (&rxstat, 0, 
    1fc8:	4832      	ldr	r0, [pc, #200]	; (2094 <option+0x170>)
    1fca:	f7ff f90c 	bl	11e6 <__pi_memset>
    1fce:	e7e9      	b.n	1fa4 <option+0x80>
			if (val == NULL)
    1fd0:	b941      	cbnz	r1, 1fe4 <option+0xc0>
				gbackoff (RADIO_LBT_BACKOFF_EXP);
    1fd2:	f7ff fafb 	bl	15cc <lrnd>
    1fd6:	f3c0 4105 	ubfx	r1, r0, #16, #6
    1fda:	3102      	adds	r1, #2
				utimer_set (bckf_timer, *val);
    1fdc:	482e      	ldr	r0, [pc, #184]	; (2098 <option+0x174>)
    1fde:	f7ff f801 	bl	fe4 <__pi_utimer_set>
    1fe2:	e7bf      	b.n	1f64 <option+0x40>
    1fe4:	8809      	ldrh	r1, [r1, #0]
    1fe6:	e7f9      	b.n	1fdc <option+0xb8>
			for (ret = 0; ret < 8; ret++)
    1fe8:	2000      	movs	r0, #0
				if (RF_cmdPropRadioDivSetup.txPower
    1fea:	4b2c      	ldr	r3, [pc, #176]	; (209c <option+0x178>)
    1fec:	8b5a      	ldrh	r2, [r3, #26]
    1fee:	4b2c      	ldr	r3, [pc, #176]	; (20a0 <option+0x17c>)
					== patable [ret])
    1ff0:	f833 1b02 	ldrh.w	r1, [r3], #2
				if (RF_cmdPropRadioDivSetup.txPower
    1ff4:	428a      	cmp	r2, r1
    1ff6:	d0d9      	beq.n	1fac <option+0x88>
			for (ret = 0; ret < 8; ret++)
    1ff8:	3001      	adds	r0, #1
    1ffa:	2808      	cmp	r0, #8
    1ffc:	d1f8      	bne.n	1ff0 <option+0xcc>
    1ffe:	e7d5      	b.n	1fac <option+0x88>
			ret = (val == NULL) ? RADIO_DEFAULT_POWER :
    2000:	b119      	cbz	r1, 200a <option+0xe6>
				(*val > 7) ? 7 : *val;
    2002:	8808      	ldrh	r0, [r1, #0]
			ret = (val == NULL) ? RADIO_DEFAULT_POWER :
    2004:	2807      	cmp	r0, #7
    2006:	bf28      	it	cs
    2008:	2007      	movcs	r0, #7
			RF_cmdPropRadioDivSetup.txPower = patable [ret];
    200a:	4b25      	ldr	r3, [pc, #148]	; (20a0 <option+0x17c>)
    200c:	f833 2010 	ldrh.w	r2, [r3, r0, lsl #1]
    2010:	4b22      	ldr	r3, [pc, #136]	; (209c <option+0x178>)
    2012:	835a      	strh	r2, [r3, #26]
			_BIS (dstate, DSTATE_IRST);
    2014:	4a1a      	ldr	r2, [pc, #104]	; (2080 <option+0x15c>)
    2016:	7813      	ldrb	r3, [r2, #0]
    2018:	f063 037f 	orn	r3, r3, #127	; 0x7f
    201c:	7013      	strb	r3, [r2, #0]
			goto OREvnt;
    201e:	e7a2      	b.n	1f66 <option+0x42>
			ret = (int) channel;
    2020:	4b20      	ldr	r3, [pc, #128]	; (20a4 <option+0x180>)
			ret = (int) vrate;
    2022:	7818      	ldrb	r0, [r3, #0]
			goto RVal;
    2024:	e7c2      	b.n	1fac <option+0x88>
			channel = (val == NULL) ? RADIO_DEFAULT_CHANNEL :
    2026:	b121      	cbz	r1, 2032 <option+0x10e>
				(*val > 7) ? 7 : *val;
    2028:	880c      	ldrh	r4, [r1, #0]
    202a:	2c07      	cmp	r4, #7
    202c:	bf28      	it	cs
    202e:	2407      	movcs	r4, #7
			channel = (val == NULL) ? RADIO_DEFAULT_CHANNEL :
    2030:	b2e4      	uxtb	r4, r4
    2032:	4b1c      	ldr	r3, [pc, #112]	; (20a4 <option+0x180>)
    2034:	701c      	strb	r4, [r3, #0]
			plugch ();
    2036:	f7ff ff65 	bl	1f04 <plugch>
			_BIS (dstate, DSTATE_IRST);
    203a:	4a11      	ldr	r2, [pc, #68]	; (2080 <option+0x15c>)
    203c:	7813      	ldrb	r3, [r2, #0]
    203e:	f063 037f 	orn	r3, r3, #127	; 0x7f
    2042:	e78e      	b.n	1f62 <option+0x3e>
			ret = (int) vrate;
    2044:	4b18      	ldr	r3, [pc, #96]	; (20a8 <option+0x184>)
    2046:	e7ec      	b.n	2022 <option+0xfe>
			vrate = (val == NULL) ? RADIO_BITRATE_INDEX :
    2048:	b139      	cbz	r1, 205a <option+0x136>
				(*val > 3) ? 3 : (*val < 1) ? 1 : *val;
    204a:	880b      	ldrh	r3, [r1, #0]
			vrate = (val == NULL) ? RADIO_BITRATE_INDEX :
    204c:	2b03      	cmp	r3, #3
    204e:	d806      	bhi.n	205e <option+0x13a>
    2050:	b13b      	cbz	r3, 2062 <option+0x13e>
    2052:	b2db      	uxtb	r3, r3
    2054:	4a14      	ldr	r2, [pc, #80]	; (20a8 <option+0x184>)
    2056:	7013      	strb	r3, [r2, #0]
    2058:	e7ed      	b.n	2036 <option+0x112>
    205a:	2302      	movs	r3, #2
    205c:	e7fa      	b.n	2054 <option+0x130>
    205e:	2303      	movs	r3, #3
    2060:	e7f8      	b.n	2054 <option+0x130>
    2062:	2301      	movs	r3, #1
    2064:	e7f6      	b.n	2054 <option+0x130>
			offdelay = (val == NULL) ? RADIO_DEFAULT_OFFDELAY :
    2066:	b119      	cbz	r1, 2070 <option+0x14c>
    2068:	880b      	ldrh	r3, [r1, #0]
    206a:	4a10      	ldr	r2, [pc, #64]	; (20ac <option+0x188>)
    206c:	8013      	strh	r3, [r2, #0]
			goto RRet;
    206e:	e799      	b.n	1fa4 <option+0x80>
			offdelay = (val == NULL) ? RADIO_DEFAULT_OFFDELAY :
    2070:	f44f 7380 	mov.w	r3, #256	; 0x100
    2074:	e7f9      	b.n	206a <option+0x146>
			syserror (EREQPAR, "cc13 op");
    2076:	2003      	movs	r0, #3
    2078:	490d      	ldr	r1, [pc, #52]	; (20b0 <option+0x18c>)
    207a:	f7fe f9f9 	bl	470 <__pi_syserror>
    207e:	bf00      	nop
    2080:	20000194 	mulcs	r0, r4, r1
    2084:	20000190 	mulcs	r0, r0, r1
    2088:	200001a0 	andcs	r0, r0, r0, lsr #3
    208c:	200001c4 	andcs	r0, r0, r4, asr #3
    2090:	200001a4 	andcs	r0, r0, r4, lsr #3
    2094:	200001b8 			; <UNDEFINED> instruction: 0x200001b8
    2098:	2000018a 	andcs	r0, r0, sl, lsl #3
    209c:	20000054 	andcs	r0, r0, r4, asr r0
    20a0:	000043be 			; <UNDEFINED> instruction: 0x000043be
    20a4:	2000018c 	andcs	r0, r0, ip, lsl #3
    20a8:	2000003a 	andcs	r0, r0, sl, lsr r0
    20ac:	20000038 	andcs	r0, r0, r8, lsr r0
    20b0:	0000435a 	andeq	r4, r0, sl, asr r3

000020b4 <issue_cmd>:
static void issue_cmd (lword cmd) {
    20b4:	b538      	push	{r3, r4, r5, lr}
    20b6:	4604      	mov	r4, r0
    20b8:	4d0c      	ldr	r5, [pc, #48]	; (20ec <issue_cmd+0x38>)
		if ((res = RFCDoorbellSendTo (cmd) & 0xff) == 0x01)
    20ba:	4620      	mov	r0, r4
    20bc:	f001 f8a4 	bl	3208 <NOROM_RFCDoorbellSendTo>
    20c0:	b2c2      	uxtb	r2, r0
    20c2:	2a01      	cmp	r2, #1
    20c4:	d011      	beq.n	20ea <issue_cmd+0x36>
		if (res != 0x86)
    20c6:	2a86      	cmp	r2, #134	; 0x86
    20c8:	d003      	beq.n	20d2 <issue_cmd+0x1e>
			syserror (EHARDWARE, "rt1");
    20ca:	4909      	ldr	r1, [pc, #36]	; (20f0 <issue_cmd+0x3c>)
			syserror (EHARDWARE, "hang ic0");
    20cc:	2008      	movs	r0, #8
    20ce:	f7fe f9cf 	bl	470 <__pi_syserror>
		if (cnt-- == 0) {
    20d2:	3d01      	subs	r5, #1
    20d4:	d105      	bne.n	20e2 <issue_cmd+0x2e>
			diag ("HUP %lx %lx", cmd, res);
    20d6:	4621      	mov	r1, r4
    20d8:	4806      	ldr	r0, [pc, #24]	; (20f4 <issue_cmd+0x40>)
    20da:	f7ff f9d9 	bl	1490 <diag>
			syserror (EHARDWARE, "hang ic0");
    20de:	4906      	ldr	r1, [pc, #24]	; (20f8 <issue_cmd+0x44>)
    20e0:	e7f4      	b.n	20cc <issue_cmd+0x18>
		udelay (1);
    20e2:	2001      	movs	r0, #1
    20e4:	f7fe f95a 	bl	39c <udelay>
		if ((res = RFCDoorbellSendTo (cmd) & 0xff) == 0x01)
    20e8:	e7e7      	b.n	20ba <issue_cmd+0x6>
}
    20ea:	bd38      	pop	{r3, r4, r5, pc}
    20ec:	00015f91 	muleq	r1, r1, pc	; <UNPREDICTABLE>
    20f0:	00004362 	andeq	r4, r0, r2, ror #6
    20f4:	00004366 	andeq	r4, r0, r6, ror #6
    20f8:	00004372 	andeq	r4, r0, r2, ror r3

000020fc <rx_de>:
static void rx_de () {
    20fc:	b510      	push	{r4, lr}
	if ((dstate & DSTATE_RXAC) == 0)
    20fe:	4c06      	ldr	r4, [pc, #24]	; (2118 <rx_de+0x1c>)
    2100:	7823      	ldrb	r3, [r4, #0]
    2102:	079b      	lsls	r3, r3, #30
    2104:	d506      	bpl.n	2114 <rx_de+0x18>
	issue_cmd (CMDR_DIR_CMD (CMD_ABORT));
    2106:	4805      	ldr	r0, [pc, #20]	; (211c <rx_de+0x20>)
    2108:	f7ff ffd4 	bl	20b4 <issue_cmd>
	_BIC (dstate, DSTATE_RXAC);
    210c:	7823      	ldrb	r3, [r4, #0]
    210e:	f023 0302 	bic.w	r3, r3, #2
    2112:	7023      	strb	r3, [r4, #0]
}
    2114:	bd10      	pop	{r4, pc}
    2116:	bf00      	nop
    2118:	20000194 	mulcs	r0, r4, r1
    211c:	04010001 	streq	r0, [r1], #-1

00002120 <rf_off>:
static void rf_off () {
    2120:	b538      	push	{r3, r4, r5, lr}
	if ((dstate & DSTATE_RFON) == 0)
    2122:	4c11      	ldr	r4, [pc, #68]	; (2168 <rf_off+0x48>)
    2124:	7823      	ldrb	r3, [r4, #0]
    2126:	06db      	lsls	r3, r3, #27
    2128:	d51d      	bpl.n	2166 <rf_off+0x46>
RFCClockDisable(void)
{
    //
    // Disable all clocks
    //
    HWREG(RFC_PWR_NONBUF_BASE + RFC_PWR_O_PWMCLKEN) = 0x0;
    212a:	2500      	movs	r5, #0
	IntDisable (INT_RFC_CPE_0);
    212c:	4b0f      	ldr	r3, [pc, #60]	; (216c <rf_off+0x4c>)
    212e:	2019      	movs	r0, #25
    2130:	681b      	ldr	r3, [r3, #0]
    2132:	695b      	ldr	r3, [r3, #20]
    2134:	4798      	blx	r3
	RFCAdi3VcoLdoVoltageMode (false);
    2136:	2000      	movs	r0, #0
    2138:	f001 f9e4 	bl	3504 <NOROM_RFCAdi3VcoLdoVoltageMode>
	RFCSynthPowerDown ();
    213c:	f001 f878 	bl	3230 <NOROM_RFCSynthPowerDown>
    2140:	4b0b      	ldr	r3, [pc, #44]	; (2170 <rf_off+0x50>)
	__pi_offdomain (PRCM_DOMAIN_RFCORE);
    2142:	2001      	movs	r0, #1
    2144:	601d      	str	r5, [r3, #0]
    2146:	f7fe f973 	bl	430 <__pi_offdomain>
	HWREGBITW (AON_RTC_BASE + AON_RTC_O_CTL, AON_RTC_CTL_RTC_UPD_EN_BITN) =
    214a:	4b0a      	ldr	r3, [pc, #40]	; (2174 <rf_off+0x54>)
    214c:	601d      	str	r5, [r3, #0]
	OSCHF_SwitchToRcOscTurnOffXosc ();
    214e:	f001 f841 	bl	31d4 <NOROM_OSCHF_SwitchToRcOscTurnOffXosc>
    HWREG( GPIO_BASE + GPIO_O_DOUTCLR31_0 ) = ( 1 << dioNumber );
    2152:	f04f 4280 	mov.w	r2, #1073741824	; 0x40000000
    2156:	4b08      	ldr	r3, [pc, #32]	; (2178 <rf_off+0x58>)
    2158:	601a      	str	r2, [r3, #0]
    215a:	2202      	movs	r2, #2
    215c:	601a      	str	r2, [r3, #0]
	_BIC (dstate, DSTATE_RFON);
    215e:	7823      	ldrb	r3, [r4, #0]
    2160:	f023 0310 	bic.w	r3, r3, #16
    2164:	7023      	strb	r3, [r4, #0]
}
    2166:	bd38      	pop	{r3, r4, r5, pc}
    2168:	20000194 	mulcs	r0, r4, r1
    216c:	100001b0 			; <UNDEFINED> instruction: 0x100001b0
    2170:	60040000 	andvs	r0, r4, r0
    2174:	43240004 			; <UNDEFINED> instruction: 0x43240004
    2178:	400220a0 	andmi	r2, r2, r0, lsr #1

0000217c <wait_cmd.constprop.0>:
static void wait_cmd (rfc_radioOp_t *cmd, lword tstat, lword timeout) {
    217c:	b570      	push	{r4, r5, r6, lr}
    217e:	4604      	mov	r4, r0
    2180:	460d      	mov	r5, r1
    2182:	f242 7611 	movw	r6, #10001	; 0x2711
		if (cmd->status == tstat)
    2186:	8862      	ldrh	r2, [r4, #2]
    2188:	42aa      	cmp	r2, r5
    218a:	d00e      	beq.n	21aa <wait_cmd.constprop.0+0x2e>
		if (timeout-- == 0) {
    218c:	3e01      	subs	r6, #1
    218e:	d108      	bne.n	21a2 <wait_cmd.constprop.0+0x26>
			diag ("HUP %lx %lx %lx", cmd->commandNo,
    2190:	8821      	ldrh	r1, [r4, #0]
    2192:	4806      	ldr	r0, [pc, #24]	; (21ac <wait_cmd.constprop.0+0x30>)
    2194:	462b      	mov	r3, r5
    2196:	f7ff f97b 	bl	1490 <diag>
			syserror (EHARDWARE, "rt2");
    219a:	2008      	movs	r0, #8
    219c:	4904      	ldr	r1, [pc, #16]	; (21b0 <wait_cmd.constprop.0+0x34>)
    219e:	f7fe f967 	bl	470 <__pi_syserror>
		udelay (1);
    21a2:	2001      	movs	r0, #1
    21a4:	f7fe f8fa 	bl	39c <udelay>
		if (cmd->status == tstat)
    21a8:	e7ed      	b.n	2186 <wait_cmd.constprop.0+0xa>
}
    21aa:	bd70      	pop	{r4, r5, r6, pc}
    21ac:	0000437b 	andeq	r4, r0, fp, ror r3
    21b0:	0000438b 	andeq	r4, r0, fp, lsl #7

000021b4 <rf_on.part.0>:
    HWREG( GPIO_BASE + GPIO_O_DOUTSET31_0 ) = ( 1 << dioNumber );
    21b4:	f04f 4280 	mov.w	r2, #1073741824	; 0x40000000
    21b8:	4b46      	ldr	r3, [pc, #280]	; (22d4 <rf_on.part.0+0x120>)
static void rf_on () {
    21ba:	e92d 41f0 	stmdb	sp!, {r4, r5, r6, r7, r8, lr}
    21be:	601a      	str	r2, [r3, #0]
    21c0:	2202      	movs	r2, #2
    21c2:	601a      	str	r2, [r3, #0]
	OSCHF_TurnOnXosc();
    21c4:	f000 ffca 	bl	315c <NOROM_OSCHF_TurnOnXosc>
	do { udelay (10); } while (!OSCHF_AttemptToSwitchToXosc ());
    21c8:	200a      	movs	r0, #10
    21ca:	f7fe f8e7 	bl	39c <udelay>
    21ce:	f000 ffd1 	bl	3174 <NOROM_OSCHF_AttemptToSwitchToXosc>
    21d2:	2800      	cmp	r0, #0
    21d4:	d0f8      	beq.n	21c8 <rf_on.part.0+0x14>
	HWREGBITW (AON_RTC_BASE + AON_RTC_O_CTL, AON_RTC_CTL_RTC_UPD_EN_BITN) =
    21d6:	2401      	movs	r4, #1
    21d8:	4b3f      	ldr	r3, [pc, #252]	; (22d8 <rf_on.part.0+0x124>)
	__pi_ondomain (PRCM_DOMAIN_RFCORE);
    21da:	4620      	mov	r0, r4
	HWREGBITW (AON_RTC_BASE + AON_RTC_O_CTL, AON_RTC_CTL_RTC_UPD_EN_BITN) =
    21dc:	601c      	str	r4, [r3, #0]
	__pi_ondomain (PRCM_DOMAIN_RFCORE);
    21de:	f7fe f909 	bl	3f4 <__pi_ondomain>
    HWREG(RFC_PWR_NONBUF_BASE + RFC_PWR_O_PWMCLKEN) =
    21e2:	f240 72ff 	movw	r2, #2047	; 0x7ff
    21e6:	4b3d      	ldr	r3, [pc, #244]	; (22dc <rf_on.part.0+0x128>)
	issue_cmd (
    21e8:	483d      	ldr	r0, [pc, #244]	; (22e0 <rf_on.part.0+0x12c>)
    21ea:	601a      	str	r2, [r3, #0]
    21ec:	f7ff ff62 	bl	20b4 <issue_cmd>
PATCH_FUN_SPEC void enterGenfskCpePatch(void)
{
   uint32_t *pPatchVec = (uint32_t *) (_GENFSK_CPERAM_START + _GENFSK_PATCH_VEC_OFFSET);

#if (_NWORD_PATCHIMAGE_GENFSK > 0)
   memcpy(pPatchVec, patchImageGenfsk, sizeof(patchImageGenfsk));
    21f0:	f44f 7223 	mov.w	r2, #652	; 0x28c
    21f4:	493b      	ldr	r1, [pc, #236]	; (22e4 <rf_on.part.0+0x130>)
    21f6:	483c      	ldr	r0, [pc, #240]	; (22e8 <rf_on.part.0+0x134>)
    21f8:	f001 ff06 	bl	4008 <memcpy>
{
   uint8_t *pPatchTab = (uint8_t *) (_GENFSK_CPERAM_START + _GENFSK_PATCH_TAB_OFFSET);
   uint32_t *pIrqPatch = (uint32_t *) (_GENFSK_CPERAM_START + _GENFSK_IRQPATCH_OFFSET);


   pPatchTab[80] = 0;
    21fc:	2200      	movs	r2, #0
    21fe:	4b3b      	ldr	r3, [pc, #236]	; (22ec <rf_on.part.0+0x138>)
      *pD++ = t4;
      *pD++ = t5;
      *pD++ = t6;
      *pD++ = t7;
      *pD++ = t8;
   } while (--nIterations);
    2200:	493b      	ldr	r1, [pc, #236]	; (22f0 <rf_on.part.0+0x13c>)
    2202:	701a      	strb	r2, [r3, #0]
   pPatchTab[57] = 1;
   pPatchTab[53] = 2;
    2204:	2202      	movs	r2, #2
    2206:	f803 2c1b 	strb.w	r2, [r3, #-27]
   pPatchTab[55] = 3;
    220a:	2203      	movs	r2, #3
    220c:	f803 2c19 	strb.w	r2, [r3, #-25]
   pPatchTab[110] = 4;
    2210:	2204      	movs	r2, #4
    2212:	779a      	strb	r2, [r3, #30]
   pPatchTab[107] = 5;
    2214:	2205      	movs	r2, #5
    2216:	76da      	strb	r2, [r3, #27]
   pPatchTab[65] = 6;
    2218:	2206      	movs	r2, #6
    221a:	f803 2c0f 	strb.w	r2, [r3, #-15]

   pIrqPatch[1] = _IRQ_PATCH_0;
    221e:	4a35      	ldr	r2, [pc, #212]	; (22f4 <rf_on.part.0+0x140>)
   pPatchTab[57] = 1;
    2220:	f803 4c17 	strb.w	r4, [r3, #-23]
   pIrqPatch[1] = _IRQ_PATCH_0;
    2224:	631a      	str	r2, [r3, #48]	; 0x30
   volatile unsigned long *pD = &HWREG(RFC_RFERAM_BASE);
    2226:	4b34      	ldr	r3, [pc, #208]	; (22f8 <rf_on.part.0+0x144>)
   const uint32_t *pS = patchGenfskRfe;
    2228:	4a34      	ldr	r2, [pc, #208]	; (22fc <rf_on.part.0+0x148>)
      t7 = *pS++;
    222a:	6990      	ldr	r0, [r2, #24]
      t2 = *pS++;
    222c:	e9d2 8e00 	ldrd	r8, lr, [r2]
      t4 = *pS++;
    2230:	e9d2 c702 	ldrd	ip, r7, [r2, #8]
      t6 = *pS++;
    2234:	e9d2 6504 	ldrd	r6, r5, [r2, #16]
      t8 = *pS++;
    2238:	69d4      	ldr	r4, [r2, #28]
      *pD++ = t1;
    223a:	f8c3 8000 	str.w	r8, [r3]
      *pD++ = t2;
    223e:	f8c3 e004 	str.w	lr, [r3, #4]
      *pD++ = t3;
    2242:	f8c3 c008 	str.w	ip, [r3, #8]
      *pD++ = t4;
    2246:	60df      	str	r7, [r3, #12]
      *pD++ = t5;
    2248:	611e      	str	r6, [r3, #16]
      *pD++ = t6;
    224a:	615d      	str	r5, [r3, #20]
      *pD++ = t7;
    224c:	6198      	str	r0, [r3, #24]
    224e:	4618      	mov	r0, r3
   } while (--nIterations);
    2250:	4288      	cmp	r0, r1
    2252:	f102 0220 	add.w	r2, r2, #32
      *pD++ = t8;
    2256:	f103 0320 	add.w	r3, r3, #32
    225a:	61c4      	str	r4, [r0, #28]
   } while (--nIterations);
    225c:	d1e5      	bne.n	222a <rf_on.part.0+0x76>
   t1 = *pS++;
   t2 = *pS++;
   t3 = *pS++;
   t4 = *pS++;
   t5 = *pS++;
   *pD++ = t1;
    225e:	4b28      	ldr	r3, [pc, #160]	; (2300 <rf_on.part.0+0x14c>)
        issue_cmd (CMDR_DIR_CMD_2BYTE (RF_CMD0, 0));
    2260:	4828      	ldr	r0, [pc, #160]	; (2304 <rf_on.part.0+0x150>)
    2262:	620b      	str	r3, [r1, #32]
   *pD++ = t2;
    2264:	4b28      	ldr	r3, [pc, #160]	; (2308 <rf_on.part.0+0x154>)
    2266:	624b      	str	r3, [r1, #36]	; 0x24
   *pD++ = t3;
    2268:	4b28      	ldr	r3, [pc, #160]	; (230c <rf_on.part.0+0x158>)
    226a:	628b      	str	r3, [r1, #40]	; 0x28
   *pD++ = t4;
    226c:	4b28      	ldr	r3, [pc, #160]	; (2310 <rf_on.part.0+0x15c>)
    226e:	62cb      	str	r3, [r1, #44]	; 0x2c
   *pD++ = t5;
    2270:	4b28      	ldr	r3, [pc, #160]	; (2314 <rf_on.part.0+0x160>)
    2272:	630b      	str	r3, [r1, #48]	; 0x30
    2274:	f7ff ff1e 	bl	20b4 <issue_cmd>
	RFCAdi3VcoLdoVoltageMode (true);
    2278:	2001      	movs	r0, #1
    227a:	f001 f943 	bl	3504 <NOROM_RFCAdi3VcoLdoVoltageMode>
       	RFCRfTrimSet (&rfTrim);
    227e:	4826      	ldr	r0, [pc, #152]	; (2318 <rf_on.part.0+0x164>)
    2280:	f001 f930 	bl	34e4 <NOROM_RFCRfTrimSet>
	issue_cmd ((lword)&RF_cmdPropRadioDivSetup);
    2284:	4825      	ldr	r0, [pc, #148]	; (231c <rf_on.part.0+0x168>)
    2286:	f7ff ff15 	bl	20b4 <issue_cmd>
	wait_cmd ((rfc_radioOp_t*)&RF_cmdPropRadioDivSetup, PROP_DONE_OK,
    228a:	f44f 5150 	mov.w	r1, #13312	; 0x3400
    228e:	4823      	ldr	r0, [pc, #140]	; (231c <rf_on.part.0+0x168>)
    2290:	f7ff ff74 	bl	217c <wait_cmd.constprop.0>
	issue_cmd ((lword)&cmd_srt);
    2294:	4822      	ldr	r0, [pc, #136]	; (2320 <rf_on.part.0+0x16c>)
    2296:	f7ff ff0d 	bl	20b4 <issue_cmd>
	issue_cmd ((lword)&RF_cmdFs);
    229a:	4822      	ldr	r0, [pc, #136]	; (2324 <rf_on.part.0+0x170>)
    229c:	f7ff ff0a 	bl	20b4 <issue_cmd>
	wait_cmd ((rfc_radioOp_t*)&RF_cmdFs, DONE_OK, 10000);
    22a0:	4820      	ldr	r0, [pc, #128]	; (2324 <rf_on.part.0+0x170>)
    22a2:	f44f 6180 	mov.w	r1, #1024	; 0x400
    22a6:	f7ff ff69 	bl	217c <wait_cmd.constprop.0>
	_BIC (dstate, DSTATE_IRST);
    22aa:	4a1f      	ldr	r2, [pc, #124]	; (2328 <rf_on.part.0+0x174>)
	IntEnable (INT_RFC_CPE_0);
    22ac:	2019      	movs	r0, #25
	_BIC (dstate, DSTATE_IRST);
    22ae:	7813      	ldrb	r3, [r2, #0]
    22b0:	f003 037f 	and.w	r3, r3, #127	; 0x7f
    22b4:	f043 0310 	orr.w	r3, r3, #16
    22b8:	7013      	strb	r3, [r2, #0]
	HWREG (RFC_DBELL_BASE + RFC_DBELL_O_RFCPEIEN) = 0;
    22ba:	2300      	movs	r3, #0
    22bc:	4a1b      	ldr	r2, [pc, #108]	; (232c <rf_on.part.0+0x178>)
    22be:	6013      	str	r3, [r2, #0]
	HWREG(RFC_DBELL_BASE+RFC_DBELL_O_RFCPEIFG) = 0;
    22c0:	f842 3c04 	str.w	r3, [r2, #-4]
	IntEnable (INT_RFC_CPE_0);
    22c4:	4b1a      	ldr	r3, [pc, #104]	; (2330 <rf_on.part.0+0x17c>)
	HWREG(RFC_DBELL_BASE+RFC_DBELL_O_RFCPEIFG) = 0;
    22c6:	3a04      	subs	r2, #4
	IntEnable (INT_RFC_CPE_0);
    22c8:	681b      	ldr	r3, [r3, #0]
}
    22ca:	e8bd 41f0 	ldmia.w	sp!, {r4, r5, r6, r7, r8, lr}
	IntEnable (INT_RFC_CPE_0);
    22ce:	691b      	ldr	r3, [r3, #16]
    22d0:	4718      	bx	r3
    22d2:	bf00      	nop
    22d4:	40022090 	mulmi	r2, r0, r0
    22d8:	43240004 			; <UNDEFINED> instruction: 0x43240004
    22dc:	60040000 	andvs	r0, r4, r0
    22e0:	06070051 			; <UNDEFINED> instruction: 0x06070051
    22e4:	00004a84 	andeq	r4, r0, r4, lsl #21
    22e8:	2100041c 	tstcs	r0, ip, lsl r4
    22ec:	21000390 			; <UNDEFINED> instruction: 0x21000390
    22f0:	2100c680 	smlabbcs	r0, r0, r6, ip
    22f4:	210005bd 			; <UNDEFINED> instruction: 0x210005bd
    22f8:	2100c000 	mrscs	ip, (UNDEF: 0)
    22fc:	000043d0 	ldrdeq	r4, [r0], -r0
    2300:	63533960 	cmpvs	r3, #96, 18	; 0x180000
    2304:	06070001 	streq	r0, [r7], -r1
    2308:	1a101020 	bne	406390 <__ccfg+0x3e63e8>
    230c:	6e236f13 	mcrvs	15, 1, r6, cr3, cr3, {0}
    2310:	16121611 			; <UNDEFINED> instruction: 0x16121611
    2314:	70006b54 	andvc	r6, r0, r4, asr fp
    2318:	200001a8 	andcs	r0, r0, r8, lsr #3
    231c:	20000054 	andcs	r0, r0, r4, asr r0
    2320:	20000024 	andcs	r0, r0, r4, lsr #32
    2324:	2000003c 	andcs	r0, r0, ip, lsr r0
    2328:	20000194 	mulcs	r0, r4, r1
    232c:	40041014 	andmi	r1, r4, r4, lsl r0
    2330:	100001b0 			; <UNDEFINED> instruction: 0x100001b0

00002334 <rx_int_enable>:
static void rx_int_enable () {
    2334:	e92d 43f8 	stmdb	sp!, {r3, r4, r5, r6, r7, r8, r9, lr}
RFCCpe0IntEnable(uint32_t ui32Mask)
{
  //
  // Multiplex RF Core interrupts to CPE0 IRQ.
  //
  HWREG(RFC_DBELL_BASE + RFC_DBELL_O_RFCPEISL) &= ~ui32Mask;
    2338:	4a2a      	ldr	r2, [pc, #168]	; (23e4 <rx_int_enable+0xb0>)
    233a:	6813      	ldr	r3, [r2, #0]
    233c:	f023 4300 	bic.w	r3, r3, #2147483648	; 0x80000000
    2340:	f423 3380 	bic.w	r3, r3, #65536	; 0x10000
    2344:	6013      	str	r3, [r2, #0]
  do
  {
    //
    // Clear any pending interrupts.
    //
    HWREG(RFC_DBELL_BASE + RFC_DBELL_O_RFCPEIFG) = 0x0;
    2346:	2200      	movs	r2, #0
    2348:	4b27      	ldr	r3, [pc, #156]	; (23e8 <rx_int_enable+0xb4>)
    234a:	601a      	str	r2, [r3, #0]
  }while(HWREG(RFC_DBELL_BASE + RFC_DBELL_O_RFCPEIFG) != 0x0);
    234c:	681d      	ldr	r5, [r3, #0]
    234e:	2d00      	cmp	r5, #0
    2350:	d1fb      	bne.n	234a <rx_int_enable+0x16>
	for (db = (rfc_dataEntryGeneral_t*) (rbuffs->pCurrEntry), i = nr = 0;
    2352:	2602      	movs	r6, #2

  //
  //  Enable the masked interrupts
  //
  HWREG(RFC_DBELL_BASE + RFC_DBELL_O_RFCPEIEN) |= ui32Mask;
    2354:	4a25      	ldr	r2, [pc, #148]	; (23ec <rx_int_enable+0xb8>)
				diag ("BAD RX");
    2356:	4f26      	ldr	r7, [pc, #152]	; (23f0 <rx_int_enable+0xbc>)
    2358:	6813      	ldr	r3, [r2, #0]
			if (__dp [0] == __dp [1] + 3 && __dp [1] <= rbuffl &&
    235a:	f8df 80a0 	ldr.w	r8, [pc, #160]	; 23fc <rx_int_enable+0xc8>
    235e:	f043 4300 	orr.w	r3, r3, #2147483648	; 0x80000000
    2362:	f443 3380 	orr.w	r3, r3, #65536	; 0x10000
    2366:	6013      	str	r3, [r2, #0]
	for (db = (rfc_dataEntryGeneral_t*) (rbuffs->pCurrEntry), i = nr = 0;
    2368:	4b22      	ldr	r3, [pc, #136]	; (23f4 <rx_int_enable+0xc0>)
				tcvphy_rcv (physid, (address)(__dp + 2), pl);
    236a:	f8df 9094 	ldr.w	r9, [pc, #148]	; 2400 <rx_int_enable+0xcc>
	for (db = (rfc_dataEntryGeneral_t*) (rbuffs->pCurrEntry), i = nr = 0;
    236e:	69db      	ldr	r3, [r3, #28]
    2370:	681c      	ldr	r4, [r3, #0]
		if (db->status == DATA_ENTRY_FINISHED) {
    2372:	7923      	ldrb	r3, [r4, #4]
    2374:	2b03      	cmp	r3, #3
    2376:	d11e      	bne.n	23b6 <rx_int_enable+0x82>
			if (__dp [0] == __dp [1] + 3 && __dp [1] <= rbuffl &&
    2378:	7a63      	ldrb	r3, [r4, #9]
    237a:	7a21      	ldrb	r1, [r4, #8]
    237c:	1cda      	adds	r2, r3, #3
    237e:	4291      	cmp	r1, r2
			nr++;
    2380:	f105 0501 	add.w	r5, r5, #1
			if (__dp [0] == __dp [1] + 3 && __dp [1] <= rbuffl &&
    2384:	d11c      	bne.n	23c0 <rx_int_enable+0x8c>
    2386:	f898 2000 	ldrb.w	r2, [r8]
    238a:	429a      	cmp	r2, r3
    238c:	d318      	bcc.n	23c0 <rx_int_enable+0x8c>
    238e:	f013 0c01 	ands.w	ip, r3, #1
    2392:	d115      	bne.n	23c0 <rx_int_enable+0x8c>
				__dp [pl + 1] = __dp [pl] - 128;
    2394:	f104 0108 	add.w	r1, r4, #8
				pl = __dp [1] + 2;
    2398:	1c9a      	adds	r2, r3, #2
				__dp [pl + 1] = __dp [pl] - 128;
    239a:	5c88      	ldrb	r0, [r1, r2]
    239c:	440b      	add	r3, r1
    239e:	3880      	subs	r0, #128	; 0x80
    23a0:	70d8      	strb	r0, [r3, #3]
				__dp [pl] = 0;
    23a2:	f801 c002 	strb.w	ip, [r1, r2]
				tcvphy_rcv (physid, (address)(__dp + 2), pl);
    23a6:	f8b9 0000 	ldrh.w	r0, [r9]
    23aa:	f104 010a 	add.w	r1, r4, #10
    23ae:	f7ff fb95 	bl	1adc <tcvphy_rcv>
			db->status = DATA_ENTRY_PENDING;
    23b2:	2300      	movs	r3, #0
    23b4:	7123      	strb	r3, [r4, #4]
	for (db = (rfc_dataEntryGeneral_t*) (rbuffs->pCurrEntry), i = nr = 0;
    23b6:	2e01      	cmp	r6, #1
    23b8:	d006      	beq.n	23c8 <rx_int_enable+0x94>
	    i < NRBUFFS; i++, db = (rfc_dataEntryGeneral_t*)(db->pNextEntry)) {
    23ba:	2601      	movs	r6, #1
    23bc:	6824      	ldr	r4, [r4, #0]
    23be:	e7d8      	b.n	2372 <rx_int_enable+0x3e>
				diag ("BAD RX");
    23c0:	4638      	mov	r0, r7
    23c2:	f7ff f865 	bl	1490 <diag>
    23c6:	e7f4      	b.n	23b2 <rx_int_enable+0x7e>
	if (nr) {
    23c8:	b14d      	cbz	r5, 23de <rx_int_enable+0xaa>
		gbackoff (RADIO_LBT_BACKOFF_RX);
    23ca:	f7ff f8ff 	bl	15cc <lrnd>
}
    23ce:	e8bd 43f8 	ldmia.w	sp!, {r3, r4, r5, r6, r7, r8, r9, lr}
		gbackoff (RADIO_LBT_BACKOFF_RX);
    23d2:	f3c0 4102 	ubfx	r1, r0, #16, #3
    23d6:	3102      	adds	r1, #2
    23d8:	4807      	ldr	r0, [pc, #28]	; (23f8 <rx_int_enable+0xc4>)
    23da:	f7fe be03 	b.w	fe4 <__pi_utimer_set>
}
    23de:	e8bd 83f8 	ldmia.w	sp!, {r3, r4, r5, r6, r7, r8, r9, pc}
    23e2:	bf00      	nop
    23e4:	40041018 	andmi	r1, r4, r8, lsl r0
    23e8:	40041010 	andmi	r1, r4, r0, lsl r0
    23ec:	40041014 	andmi	r1, r4, r4, lsl r0
    23f0:	0000438f 	andeq	r4, r0, pc, lsl #7
    23f4:	2000007c 	andcs	r0, r0, ip, ror r0
    23f8:	2000018a 	andcs	r0, r0, sl, lsl #3
    23fc:	200001a4 	andcs	r0, r0, r4, lsr #3
    2400:	2000019c 	mulcs	r0, ip, r1

00002404 <cc1350_driver>:
thread (cc1350_driver)
    2404:	2801      	cmp	r0, #1
    2406:	b570      	push	{r4, r5, r6, lr}
    2408:	f000 808b 	beq.w	2522 <cc1350_driver+0x11e>
    240c:	2802      	cmp	r0, #2
    240e:	f000 80bd 	beq.w	258c <cc1350_driver+0x188>
    2412:	2800      	cmp	r0, #0
    2414:	f040 80ce 	bne.w	25b4 <cc1350_driver+0x1b0>
		if (dstate & DSTATE_IRST) {
    2418:	4c68      	ldr	r4, [pc, #416]	; (25bc <cc1350_driver+0x1b8>)
    241a:	f994 3000 	ldrsb.w	r3, [r4]
    241e:	2b00      	cmp	r3, #0
    2420:	da05      	bge.n	242e <cc1350_driver+0x2a>
			rf_off ();
    2422:	f7ff fe7d 	bl	2120 <rf_off>
			_BIC (dstate,
    2426:	7823      	ldrb	r3, [r4, #0]
    2428:	f003 0369 	and.w	r3, r3, #105	; 0x69
    242c:	7023      	strb	r3, [r4, #0]
		if (dstate & DSTATE_RXAC) {
    242e:	7823      	ldrb	r3, [r4, #0]
    2430:	0798      	lsls	r0, r3, #30
    2432:	f003 0201 	and.w	r2, r3, #1
    2436:	d51e      	bpl.n	2476 <cc1350_driver+0x72>
			if ((dstate & DSTATE_RXON) == 0)
    2438:	b90a      	cbnz	r2, 243e <cc1350_driver+0x3a>
				rx_de ();
    243a:	f7ff fe5f 	bl	20fc <rx_de>
		if (paylen == 0) {
    243e:	4d60      	ldr	r5, [pc, #384]	; (25c0 <cc1350_driver+0x1bc>)
    2440:	4e60      	ldr	r6, [pc, #384]	; (25c4 <cc1350_driver+0x1c0>)
    2442:	682b      	ldr	r3, [r5, #0]
    2444:	2b00      	cmp	r3, #0
    2446:	d14c      	bne.n	24e2 <cc1350_driver+0xde>
			if ((RF_cmdPropTx.pPkt = (byte*)tcvphy_get (physid,
    2448:	4b5f      	ldr	r3, [pc, #380]	; (25c8 <cc1350_driver+0x1c4>)
    244a:	4629      	mov	r1, r5
    244c:	8818      	ldrh	r0, [r3, #0]
    244e:	f7ff fb93 	bl	1b78 <tcvphy_get>
    2452:	6170      	str	r0, [r6, #20]
    2454:	2800      	cmp	r0, #0
    2456:	d02f      	beq.n	24b8 <cc1350_driver+0xb4>
				sysassert (paylen <= rbuffl && paylen > 0 &&
    2458:	4a5c      	ldr	r2, [pc, #368]	; (25cc <cc1350_driver+0x1c8>)
				paylen -= 2;
    245a:	682b      	ldr	r3, [r5, #0]
				sysassert (paylen <= rbuffl && paylen > 0 &&
    245c:	7812      	ldrb	r2, [r2, #0]
				paylen -= 2;
    245e:	3b02      	subs	r3, #2
				sysassert (paylen <= rbuffl && paylen > 0 &&
    2460:	4293      	cmp	r3, r2
				paylen -= 2;
    2462:	602b      	str	r3, [r5, #0]
				sysassert (paylen <= rbuffl && paylen > 0 &&
    2464:	dc03      	bgt.n	246e <cc1350_driver+0x6a>
    2466:	2b00      	cmp	r3, #0
    2468:	dd01      	ble.n	246e <cc1350_driver+0x6a>
    246a:	07db      	lsls	r3, r3, #31
    246c:	d51b      	bpl.n	24a6 <cc1350_driver+0xa2>
    246e:	200a      	movs	r0, #10
    2470:	4957      	ldr	r1, [pc, #348]	; (25d0 <cc1350_driver+0x1cc>)
    2472:	f7fd fffd 	bl	470 <__pi_syserror>
		} else if (dstate & DSTATE_RXON) {
    2476:	2a00      	cmp	r2, #0
    2478:	d0e1      	beq.n	243e <cc1350_driver+0x3a>
	if (dstate & DSTATE_RFON)
    247a:	06d9      	lsls	r1, r3, #27
    247c:	d50d      	bpl.n	249a <cc1350_driver+0x96>
	for (re = (rfc_dataEntryGeneral_t*) (rbuffs->pCurrEntry), i = 0;
    247e:	4855      	ldr	r0, [pc, #340]	; (25d4 <cc1350_driver+0x1d0>)
    2480:	69c3      	ldr	r3, [r0, #28]
    2482:	681a      	ldr	r2, [r3, #0]
		re->status = DATA_ENTRY_PENDING;
    2484:	2300      	movs	r3, #0
    2486:	7113      	strb	r3, [r2, #4]
	    i < NRBUFFS; i++, re = (rfc_dataEntryGeneral_t*)(re->pNextEntry))
    2488:	6812      	ldr	r2, [r2, #0]
		re->status = DATA_ENTRY_PENDING;
    248a:	7113      	strb	r3, [r2, #4]
	issue_cmd ((lword)&RF_cmdPropRx);
    248c:	f7ff fe12 	bl	20b4 <issue_cmd>
	_BIS (dstate, DSTATE_RXAC);
    2490:	7823      	ldrb	r3, [r4, #0]
    2492:	f043 0302 	orr.w	r3, r3, #2
    2496:	7023      	strb	r3, [r4, #0]
    2498:	e7d1      	b.n	243e <cc1350_driver+0x3a>
    249a:	f7ff fe8b 	bl	21b4 <rf_on.part.0>
	if (dstate & DSTATE_RXAC)
    249e:	7823      	ldrb	r3, [r4, #0]
    24a0:	079a      	lsls	r2, r3, #30
    24a2:	d5ec      	bpl.n	247e <cc1350_driver+0x7a>
    24a4:	e7cb      	b.n	243e <cc1350_driver+0x3a>
				if (statid != 0xffff)
    24a6:	f64f 72ff 	movw	r2, #65535	; 0xffff
    24aa:	4b4b      	ldr	r3, [pc, #300]	; (25d8 <cc1350_driver+0x1d4>)
    24ac:	881b      	ldrh	r3, [r3, #0]
    24ae:	4293      	cmp	r3, r2
					((address)(RF_cmdPropTx.pPkt)) [0] =
    24b0:	bf18      	it	ne
    24b2:	8003      	strhne	r3, [r0, #0]
				RF_cmdPropTx.pktLen = (byte) paylen;
    24b4:	682b      	ldr	r3, [r5, #0]
    24b6:	73f3      	strb	r3, [r6, #15]
		if (paylen == 0) {
    24b8:	6829      	ldr	r1, [r5, #0]
    24ba:	b991      	cbnz	r1, 24e2 <cc1350_driver+0xde>
			wait (qevent, DR_LOOP);
    24bc:	4b47      	ldr	r3, [pc, #284]	; (25dc <cc1350_driver+0x1d8>)
    24be:	6818      	ldr	r0, [r3, #0]
    24c0:	f7fe fe04 	bl	10cc <__pi_wait>
			if (dstate & DSTATE_RXAC) {
    24c4:	7823      	ldrb	r3, [r4, #0]
    24c6:	079d      	lsls	r5, r3, #30
    24c8:	d503      	bpl.n	24d2 <cc1350_driver+0xce>
				rx_int_enable ();
    24ca:	f7ff ff33 	bl	2334 <rx_int_enable>
			release;
    24ce:	f7fe fb8d 	bl	bec <__pi_release>
			} else if (dstate & DSTATE_RFON) {
    24d2:	06dc      	lsls	r4, r3, #27
    24d4:	d5fb      	bpl.n	24ce <cc1350_driver+0xca>
				delay (offdelay, DR_GOOF);
    24d6:	2102      	movs	r1, #2
    24d8:	4b41      	ldr	r3, [pc, #260]	; (25e0 <cc1350_driver+0x1dc>)
    24da:	8818      	ldrh	r0, [r3, #0]
    24dc:	f7fe fe3c 	bl	1158 <delay>
    24e0:	e7f5      	b.n	24ce <cc1350_driver+0xca>
		if (bckf_timer) {
    24e2:	4d40      	ldr	r5, [pc, #256]	; (25e4 <cc1350_driver+0x1e0>)
    24e4:	882b      	ldrh	r3, [r5, #0]
    24e6:	b163      	cbz	r3, 2502 <cc1350_driver+0xfe>
			wait (qevent, DR_LOOP);
    24e8:	4b3c      	ldr	r3, [pc, #240]	; (25dc <cc1350_driver+0x1d8>)
    24ea:	2100      	movs	r1, #0
    24ec:	6818      	ldr	r0, [r3, #0]
    24ee:	f7fe fded 	bl	10cc <__pi_wait>
			delay (bckf_timer, DR_LOOP);
    24f2:	8828      	ldrh	r0, [r5, #0]
    24f4:	2100      	movs	r1, #0
    24f6:	f7fe fe2f 	bl	1158 <delay>
			if (dstate & DSTATE_RXAC)
    24fa:	7823      	ldrb	r3, [r4, #0]
    24fc:	0798      	lsls	r0, r3, #30
    24fe:	d5e6      	bpl.n	24ce <cc1350_driver+0xca>
    2500:	e7e3      	b.n	24ca <cc1350_driver+0xc6>
	if (dstate & DSTATE_RFON)
    2502:	7823      	ldrb	r3, [r4, #0]
    2504:	06d9      	lsls	r1, r3, #27
    2506:	d401      	bmi.n	250c <cc1350_driver+0x108>
    2508:	f7ff fe54 	bl	21b4 <rf_on.part.0>
		rx_de ();
    250c:	f7ff fdf6 	bl	20fc <rx_de>
		RF_cmdPropTx . status = 0;
    2510:	2300      	movs	r3, #0
		HWREG (RFC_DBELL_BASE + RFC_DBELL_O_RFCPEIFG) = 
    2512:	f06f 0202 	mvn.w	r2, #2
		RF_cmdPropTx . status = 0;
    2516:	8073      	strh	r3, [r6, #2]
		HWREG (RFC_DBELL_BASE + RFC_DBELL_O_RFCPEIFG) = 
    2518:	4b33      	ldr	r3, [pc, #204]	; (25e8 <cc1350_driver+0x1e4>)
		issue_cmd ((lword)&cmd_cs);
    251a:	4834      	ldr	r0, [pc, #208]	; (25ec <cc1350_driver+0x1e8>)
		HWREG (RFC_DBELL_BASE + RFC_DBELL_O_RFCPEIFG) = 
    251c:	601a      	str	r2, [r3, #0]
		issue_cmd ((lword)&cmd_cs);
    251e:	f7ff fdc9 	bl	20b4 <issue_cmd>
		if (dstate & DSTATE_IRST)
    2522:	4b26      	ldr	r3, [pc, #152]	; (25bc <cc1350_driver+0x1b8>)
    2524:	f993 3000 	ldrsb.w	r3, [r3]
    2528:	2b00      	cmp	r3, #0
    252a:	f6ff af75 	blt.w	2418 <cc1350_driver+0x14>
		if ((HWREG (RFC_DBELL_BASE + RFC_DBELL_O_RFCPEIFG) &
    252e:	4b2e      	ldr	r3, [pc, #184]	; (25e8 <cc1350_driver+0x1e4>)
    2530:	681a      	ldr	r2, [r3, #0]
    2532:	0792      	lsls	r2, r2, #30
    2534:	d402      	bmi.n	253c <cc1350_driver+0x138>
			delay (1, DR_XMIT);
    2536:	2101      	movs	r1, #1
    2538:	4608      	mov	r0, r1
    253a:	e7cf      	b.n	24dc <cc1350_driver+0xd8>
		if (RF_cmdPropTx.status != PROP_DONE_OK) {
    253c:	4821      	ldr	r0, [pc, #132]	; (25c4 <cc1350_driver+0x1c0>)
    253e:	4c2c      	ldr	r4, [pc, #176]	; (25f0 <cc1350_driver+0x1ec>)
    2540:	8842      	ldrh	r2, [r0, #2]
    2542:	f5b2 5f50 	cmp.w	r2, #13312	; 0x3400
    2546:	d018      	beq.n	257a <cc1350_driver+0x176>
			if (txtries >= RADIO_LBT_MAX_TRIES) {
    2548:	7822      	ldrb	r2, [r4, #0]
    254a:	2a0f      	cmp	r2, #15
    254c:	d909      	bls.n	2562 <cc1350_driver+0x15e>
				RF_cmdPropTx . status = 0;
    254e:	2200      	movs	r2, #0
    2550:	8042      	strh	r2, [r0, #2]
				HWREG (RFC_DBELL_BASE + RFC_DBELL_O_RFCPEIFG) = 
    2552:	f06f 0202 	mvn.w	r2, #2
    2556:	601a      	str	r2, [r3, #0]
				issue_cmd ((lword)&RF_cmdPropTx);
    2558:	f7ff fdac 	bl	20b4 <issue_cmd>
				proceed (DR_XMIT);
    255c:	2001      	movs	r0, #1
    255e:	f7fe fdab 	bl	10b8 <proceed>
			txtries++;
    2562:	7823      	ldrb	r3, [r4, #0]
    2564:	3301      	adds	r3, #1
    2566:	7023      	strb	r3, [r4, #0]
			gbackoff (RADIO_LBT_BACKOFF_EXP);
    2568:	f7ff f830 	bl	15cc <lrnd>
    256c:	f3c0 4105 	ubfx	r1, r0, #16, #6
    2570:	3102      	adds	r1, #2
		utimer_set (bckf_timer, RADIO_LBT_XMIT_SPACE);
    2572:	481c      	ldr	r0, [pc, #112]	; (25e4 <cc1350_driver+0x1e0>)
    2574:	f7fe fd36 	bl	fe4 <__pi_utimer_set>
		goto DR_LOOP__;
    2578:	e74e      	b.n	2418 <cc1350_driver+0x14>
		tcvphy_end ((address)(RF_cmdPropTx.pPkt));
    257a:	6940      	ldr	r0, [r0, #20]
    257c:	f7ff fb36 	bl	1bec <tcvphy_end>
		paylen = 0;
    2580:	2300      	movs	r3, #0
    2582:	4a0f      	ldr	r2, [pc, #60]	; (25c0 <cc1350_driver+0x1bc>)
		utimer_set (bckf_timer, RADIO_LBT_XMIT_SPACE);
    2584:	2102      	movs	r1, #2
		paylen = 0;
    2586:	6013      	str	r3, [r2, #0]
		txtries = 0;
    2588:	7023      	strb	r3, [r4, #0]
		utimer_set (bckf_timer, RADIO_LBT_XMIT_SPACE);
    258a:	e7f2      	b.n	2572 <cc1350_driver+0x16e>
		if (!(dstate & DSTATE_IRST) && (dstate & DSTATE_RXON) == 0 &&
    258c:	4b0b      	ldr	r3, [pc, #44]	; (25bc <cc1350_driver+0x1b8>)
    258e:	781a      	ldrb	r2, [r3, #0]
    2590:	f993 3000 	ldrsb.w	r3, [r3]
    2594:	2b00      	cmp	r3, #0
    2596:	f6ff af3f 	blt.w	2418 <cc1350_driver+0x14>
    259a:	07d3      	lsls	r3, r2, #31
    259c:	f53f af3c 	bmi.w	2418 <cc1350_driver+0x14>
		    tcvphy_top (physid) == NULL)
    25a0:	4b09      	ldr	r3, [pc, #36]	; (25c8 <cc1350_driver+0x1c4>)
    25a2:	8818      	ldrh	r0, [r3, #0]
    25a4:	f7ff fb08 	bl	1bb8 <tcvphy_top>
		if (!(dstate & DSTATE_IRST) && (dstate & DSTATE_RXON) == 0 &&
    25a8:	2800      	cmp	r0, #0
    25aa:	f47f af35 	bne.w	2418 <cc1350_driver+0x14>
			rf_off ();
    25ae:	f7ff fdb7 	bl	2120 <rf_off>
    25b2:	e731      	b.n	2418 <cc1350_driver+0x14>
endthread
    25b4:	e8bd 4070 	ldmia.w	sp!, {r4, r5, r6, lr}
    25b8:	f7fe bcf6 	b.w	fa8 <__pi_badstate>
    25bc:	20000194 	mulcs	r0, r4, r1
    25c0:	20000198 	mulcs	r0, r8, r1
    25c4:	200000a0 	andcs	r0, r0, r0, lsr #1
    25c8:	2000019c 	mulcs	r0, ip, r1
    25cc:	200001a4 	andcs	r0, r0, r4, lsr #3
    25d0:	00004396 	muleq	r0, r6, r3
    25d4:	2000007c 	andcs	r0, r0, ip, ror r0
    25d8:	200001c4 	andcs	r0, r0, r4, asr #3
    25dc:	200001a0 	andcs	r0, r0, r0, lsr #3
    25e0:	20000038 	andcs	r0, r0, r8, lsr r0
    25e4:	2000018a 	andcs	r0, r0, sl, lsl #3
    25e8:	40041010 	andmi	r1, r4, r0, lsl r0
    25ec:	20000008 	andcs	r0, r0, r8
    25f0:	200001c6 	andcs	r0, r0, r6, asr #3

000025f4 <RFCCPE0IntHandler>:
void RFCCPE0IntHandler (void) {
    25f4:	b530      	push	{r4, r5, lr}
	if (HWREG (RFC_DBELL_BASE + RFC_DBELL_O_RFCPEIFG) &
    25f6:	4a15      	ldr	r2, [pc, #84]	; (264c <RFCCPE0IntHandler+0x58>)
    25f8:	6813      	ldr	r3, [r2, #0]
    25fa:	2b00      	cmp	r3, #0
		_BIS (dstate, DSTATE_IRST);
    25fc:	bfbf      	itttt	lt
    25fe:	4914      	ldrlt	r1, [pc, #80]	; (2650 <RFCCPE0IntHandler+0x5c>)
    2600:	780b      	ldrblt	r3, [r1, #0]
    2602:	f063 037f 	ornlt	r3, r3, #127	; 0x7f
    2606:	700b      	strblt	r3, [r1, #0]
  do
  {
    //
    // Clear interrupts that may now be pending
    //
    HWREG(RFC_DBELL_BASE+RFC_DBELL_O_RFCPEIFG) = ~ui32Mask;
    2608:	2100      	movs	r1, #0
    260a:	6011      	str	r1, [r2, #0]
  }while (HWREG(RFC_DBELL_BASE+RFC_DBELL_O_RFCPEIFG) & ui32Mask);
    260c:	6813      	ldr	r3, [r2, #0]
    260e:	2b00      	cmp	r3, #0
    2610:	d1fb      	bne.n	260a <RFCCPE0IntHandler+0x16>
  HWREG( RFC_DBELL_BASE + RFC_DBELL_O_RFCPEIEN ) &= ~ui32Mask;
    2612:	4a10      	ldr	r2, [pc, #64]	; (2654 <RFCCPE0IntHandler+0x60>)
	p_trigger (drvprcs, qevent);
    2614:	4c10      	ldr	r4, [pc, #64]	; (2658 <RFCCPE0IntHandler+0x64>)
    2616:	6811      	ldr	r1, [r2, #0]
    2618:	6013      	str	r3, [r2, #0]
    261a:	4a10      	ldr	r2, [pc, #64]	; (265c <RFCCPE0IntHandler+0x68>)
    261c:	6824      	ldr	r4, [r4, #0]
    261e:	6811      	ldr	r1, [r2, #0]
    2620:	4608      	mov	r0, r1
    2622:	f830 2b10 	ldrh.w	r2, [r0], #16
    2626:	f002 0207 	and.w	r2, r2, #7
    262a:	429a      	cmp	r2, r3
    262c:	dd08      	ble.n	2640 <RFCCPE0IntHandler+0x4c>
    262e:	f850 5033 	ldr.w	r5, [r0, r3, lsl #3]
    2632:	3301      	adds	r3, #1
    2634:	42a5      	cmp	r5, r4
    2636:	d1f8      	bne.n	262a <RFCCPE0IntHandler+0x36>
    2638:	eb01 03c3 	add.w	r3, r1, r3, lsl #3
    263c:	889b      	ldrh	r3, [r3, #4]
    263e:	800b      	strh	r3, [r1, #0]
	RISE_N_SHINE;
    2640:	4a07      	ldr	r2, [pc, #28]	; (2660 <RFCCPE0IntHandler+0x6c>)
    2642:	7813      	ldrb	r3, [r2, #0]
    2644:	f043 0302 	orr.w	r3, r3, #2
    2648:	7013      	strb	r3, [r2, #0]
}
    264a:	bd30      	pop	{r4, r5, pc}
    264c:	40041010 	andmi	r1, r4, r0, lsl r0
    2650:	20000194 	mulcs	r0, r4, r1
    2654:	40041014 	andmi	r1, r4, r4, lsl r0
    2658:	200001a0 	andcs	r0, r0, r0, lsr #3
    265c:	20000190 	mulcs	r0, r0, r1
    2660:	20000214 	andcs	r0, r0, r4, lsl r2

00002664 <phys_cc1350>:

// ============================================================================

void phys_cc1350 (int phy, int mbs) {
    2664:	e92d 4ff8 	stmdb	sp!, {r3, r4, r5, r6, r7, r8, r9, sl, fp, lr}
// packet length is (and I have reasons not to trust the manual), so let me
// assume it is 255 - 4 - 1 = 250. We shall be careful.
//

#if (RADIO_OPTIONS & RADIO_OPTION_NOCHECKS) == 0
	if (rbuffl != 0)
    2668:	4c49      	ldr	r4, [pc, #292]	; (2790 <phys_cc1350+0x12c>)
void phys_cc1350 (int phy, int mbs) {
    266a:	4606      	mov	r6, r0
	if (rbuffl != 0)
    266c:	7822      	ldrb	r2, [r4, #0]
    266e:	b11a      	cbz	r2, 2678 <phys_cc1350+0x14>
		/* We are allowed to do it only once */
		syserror (ETOOMANY, "cc13");
    2670:	2009      	movs	r0, #9
    2672:	4948      	ldr	r1, [pc, #288]	; (2794 <phys_cc1350+0x130>)
		mbs = CC1350_MAXPLEN;

#if (RADIO_OPTIONS & RADIO_OPTION_NOCHECKS) == 0
	if (mbs < 6 || mbs > CC1350_MAXPLEN)
		/* We are allowed to do it only once */
		syserror (EREQPAR, "cc13 mb");
    2674:	f7fd fefc 	bl	470 <__pi_syserror>
	if (mbs == 0)
    2678:	b129      	cbz	r1, 2686 <phys_cc1350+0x22>
	if (mbs < 6 || mbs > CC1350_MAXPLEN)
    267a:	1f8a      	subs	r2, r1, #6
    267c:	2af4      	cmp	r2, #244	; 0xf4
    267e:	d903      	bls.n	2688 <phys_cc1350+0x24>
		syserror (EREQPAR, "cc13 mb");
    2680:	2003      	movs	r0, #3
    2682:	4945      	ldr	r1, [pc, #276]	; (2798 <phys_cc1350+0x134>)
    2684:	e7f6      	b.n	2674 <phys_cc1350+0x10>
		mbs = CC1350_MAXPLEN;
    2686:	21fa      	movs	r1, #250	; 0xfa
	i = 0;
    2688:	2700      	movs	r7, #0
#endif

	rbuffl = (byte) mbs;
    268a:	f04f 0802 	mov.w	r8, #2
		db->status = DATA_ENTRY_PENDING;
    268e:	46ba      	mov	sl, r7
		db->config.type = 0;	// General (data in structure)
    2690:	f04f 0904 	mov.w	r9, #4
	rbuffl = (byte) mbs;
    2694:	7021      	strb	r1, [r4, #0]
			umalloc (sizeof (rfc_dataEntryGeneral_t) - 1 + rbuffl +
    2696:	7820      	ldrb	r0, [r4, #0]
    2698:	469b      	mov	fp, r3
    269a:	300d      	adds	r0, #13
    269c:	f7fe fe7e 	bl	139c <__pi_malloc>
		if (db == NULL)
    26a0:	4603      	mov	r3, r0
    26a2:	b920      	cbnz	r0, 26ae <phys_cc1350+0x4a>
			syserror (EMALLOC, "cc13");
    26a4:	2006      	movs	r0, #6
    26a6:	493b      	ldr	r1, [pc, #236]	; (2794 <phys_cc1350+0x130>)
    26a8:	e7e4      	b.n	2674 <phys_cc1350+0x10>
    26aa:	46b8      	mov	r8, r7
    26ac:	e7f3      	b.n	2696 <phys_cc1350+0x32>
		db->status = DATA_ENTRY_PENDING;
    26ae:	f880 a004 	strb.w	sl, [r0, #4]
		if (i)
    26b2:	2f00      	cmp	r7, #0
    26b4:	d03e      	beq.n	2734 <phys_cc1350+0xd0>
			da->pNextEntry = (byte*) db;
    26b6:	f8cb 0000 	str.w	r0, [fp]
		if (++i == NRBUFFS)
    26ba:	2701      	movs	r7, #1
		db->length = rbuffl + 2;
    26bc:	7822      	ldrb	r2, [r4, #0]
		if (++i == NRBUFFS)
    26be:	45b8      	cmp	r8, r7
		db->length = rbuffl + 2;
    26c0:	f102 0202 	add.w	r2, r2, #2
		db->config.type = 0;	// General (data in structure)
    26c4:	f883 9005 	strb.w	r9, [r3, #5]
		db->length = rbuffl + 2;
    26c8:	80da      	strh	r2, [r3, #6]
		if (++i == NRBUFFS)
    26ca:	d1ee      	bne.n	26aa <phys_cc1350+0x46>
	db->pNextEntry = (byte*) re;
    26cc:	601d      	str	r5, [r3, #0]
	rbuffs = (dataQueue_t*) umalloc (sizeof (dataQueue_t));
    26ce:	2008      	movs	r0, #8
    26d0:	f7fe fe64 	bl	139c <__pi_malloc>
    26d4:	4b31      	ldr	r3, [pc, #196]	; (279c <phys_cc1350+0x138>)
    26d6:	61d8      	str	r0, [r3, #28]
	if (rbuffs == NULL)
    26d8:	2800      	cmp	r0, #0
    26da:	d0e3      	beq.n	26a4 <phys_cc1350+0x40>
	rbuffs->pCurrEntry = (byte*) re;
    26dc:	6005      	str	r5, [r0, #0]
	rbuffs->pLastEntry = NULL;
    26de:	2500      	movs	r5, #0
    26e0:	69da      	ldr	r2, [r3, #28]
	init_rbuffs ();

	physid = phy;

	// Register the phy
	qevent = tcvphy_reg (phy, option, INFO_PHYS_CC1350);
    26e2:	492f      	ldr	r1, [pc, #188]	; (27a0 <phys_cc1350+0x13c>)
	rbuffs->pLastEntry = NULL;
    26e4:	6055      	str	r5, [r2, #4]
	RF_cmdPropRx . pOutput = (byte*) &rxstat;
    26e6:	4a2f      	ldr	r2, [pc, #188]	; (27a4 <phys_cc1350+0x140>)
	qevent = tcvphy_reg (phy, option, INFO_PHYS_CC1350);
    26e8:	4630      	mov	r0, r6
	RF_cmdPropRx . pOutput = (byte*) &rxstat;
    26ea:	621a      	str	r2, [r3, #32]
	RF_cmdPropRx . pktConf . bRepeatOk = 1;
    26ec:	89da      	ldrh	r2, [r3, #14]
    26ee:	f442 520c 	orr.w	r2, r2, #8960	; 0x2300
    26f2:	f042 0206 	orr.w	r2, r2, #6
    26f6:	81da      	strh	r2, [r3, #14]
	rbuffl -= 2;
    26f8:	7823      	ldrb	r3, [r4, #0]
	qevent = tcvphy_reg (phy, option, INFO_PHYS_CC1350);
    26fa:	f44f 6210 	mov.w	r2, #2304	; 0x900
	rbuffl -= 2;
    26fe:	3b02      	subs	r3, #2
    2700:	7023      	strb	r3, [r4, #0]
	physid = phy;
    2702:	4b29      	ldr	r3, [pc, #164]	; (27a8 <phys_cc1350+0x144>)
    2704:	801e      	strh	r6, [r3, #0]
	qevent = tcvphy_reg (phy, option, INFO_PHYS_CC1350);
    2706:	f7ff f9c1 	bl	1a8c <tcvphy_reg>
    270a:	4b28      	ldr	r3, [pc, #160]	; (27ac <phys_cc1350+0x148>)
	LEDI (0, 0);
	LEDI (1, 0);
	LEDI (2, 0);

#if DIAG_MESSAGES
	diag ("CC1350: %d, %d, %d", RADIO_BITRATE_INDEX, RADIO_DEFAULT_POWER,
    270c:	2207      	movs	r2, #7
    270e:	2102      	movs	r1, #2
	qevent = tcvphy_reg (phy, option, INFO_PHYS_CC1350);
    2710:	6018      	str	r0, [r3, #0]
	diag ("CC1350: %d, %d, %d", RADIO_BITRATE_INDEX, RADIO_DEFAULT_POWER,
    2712:	462b      	mov	r3, r5
    2714:	4826      	ldr	r0, [pc, #152]	; (27b0 <phys_cc1350+0x14c>)
    2716:	f7fe febb 	bl	1490 <diag>
		RADIO_DEFAULT_CHANNEL);
#endif

	// Install the backoff timer
	utimer_add (&bckf_timer);
    271a:	4826      	ldr	r0, [pc, #152]	; (27b4 <phys_cc1350+0x150>)
    271c:	f7fe fc4c 	bl	fb8 <utimer_add>

	// Start the driver process
	drvprcs = runthread (cc1350_driver);
    2720:	4629      	mov	r1, r5
    2722:	4825      	ldr	r0, [pc, #148]	; (27b8 <phys_cc1350+0x154>)
    2724:	f7fe fe8e 	bl	1444 <__pi_fork>
    2728:	4b24      	ldr	r3, [pc, #144]	; (27bc <phys_cc1350+0x158>)
    272a:	6018      	str	r0, [r3, #0]

#if (RADIO_OPTIONS & RADIO_OPTION_NOCHECKS) == 0
	if (drvprcs == 0)
    272c:	b920      	cbnz	r0, 2738 <phys_cc1350+0xd4>
		syserror (ERESOURCE, "cc13");
    272e:	2004      	movs	r0, #4
    2730:	4918      	ldr	r1, [pc, #96]	; (2794 <phys_cc1350+0x130>)
    2732:	e79f      	b.n	2674 <phys_cc1350+0x10>
    2734:	4605      	mov	r5, r0
    2736:	e7c0      	b.n	26ba <phys_cc1350+0x56>

#if RADIO_DEFAULT_POWER <= 7
#if (RADIO_OPTIONS & RADIO_OPTION_PXOPTIONS)
	cmd_sp.txPower =
#endif
	RF_cmdPropRadioDivSetup.txPower = patable [RADIO_DEFAULT_POWER];
    2738:	f64b 432b 	movw	r3, #48171	; 0xbc2b
    273c:	4c20      	ldr	r4, [pc, #128]	; (27c0 <phys_cc1350+0x15c>)
	RF_cmdPropRadioDivSetup.symbolRate.rateWord = ratable [vrate - 1] . rw;
    273e:	4921      	ldr	r1, [pc, #132]	; (27c4 <phys_cc1350+0x160>)
	RF_cmdPropRadioDivSetup.txPower = patable [RADIO_DEFAULT_POWER];
    2740:	8363      	strh	r3, [r4, #26]
	RF_cmdPropRadioDivSetup.symbolRate.preScale = ratable [vrate - 1] . ps;
    2742:	4b21      	ldr	r3, [pc, #132]	; (27c8 <phys_cc1350+0x164>)
    2744:	781a      	ldrb	r2, [r3, #0]
    2746:	3a01      	subs	r2, #1
	RF_cmdPropRadioDivSetup.symbolRate.rateWord = ratable [vrate - 1] . rw;
    2748:	eb01 0382 	add.w	r3, r1, r2, lsl #2
	RF_cmdPropRadioDivSetup.symbolRate.preScale = ratable [vrate - 1] . ps;
    274c:	8858      	ldrh	r0, [r3, #2]
    274e:	f831 3022 	ldrh.w	r3, [r1, r2, lsl #2]
    2752:	6922      	ldr	r2, [r4, #16]
    2754:	f003 030f 	and.w	r3, r3, #15
    2758:	f022 52ff 	bic.w	r2, r2, #534773760	; 0x1fe00000
    275c:	f422 12ff 	bic.w	r2, r2, #2088960	; 0x1fe000
    2760:	f422 52f8 	bic.w	r2, r2, #7936	; 0x1f00
    2764:	f022 020f 	bic.w	r2, r2, #15
    2768:	ea43 2300 	orr.w	r3, r3, r0, lsl #8
    276c:	4313      	orrs	r3, r2
    276e:	6123      	str	r3, [r4, #16]
#endif

#if RADIO_BITRATE_INDEX > 0
	plugrt ();
#endif
	plugch ();
    2770:	f7ff fbc8 	bl	1f04 <plugch>

	// Make sure, prop mode is selected in PRCM (this is supposed to be
	// the default)
	HWREG (PRCM_BASE + PRCM_O_RFCMODESEL) =  RF_MODE_PROPRIETARY_SUB_1;
    2774:	4b15      	ldr	r3, [pc, #84]	; (27cc <phys_cc1350+0x168>)

	// Precompute the Trim
	RFCRTrim ((rfc_radioOp_t*)&RF_cmdPropRadioDivSetup);
    2776:	4620      	mov	r0, r4
	HWREG (PRCM_BASE + PRCM_O_RFCMODESEL) =  RF_MODE_PROPRIETARY_SUB_1;
    2778:	601d      	str	r5, [r3, #0]
	RFCRTrim ((rfc_radioOp_t*)&RF_cmdPropRadioDivSetup);
    277a:	f000 fe27 	bl	33cc <NOROM_RFCRTrim>
       	RFCRfTrimRead ((rfc_radioOp_t*)&RF_cmdPropRadioDivSetup,
    277e:	4620      	mov	r0, r4
    2780:	4913      	ldr	r1, [pc, #76]	; (27d0 <phys_cc1350+0x16c>)
    2782:	f000 fd7b 	bl	327c <NOROM_RFCRfTrimRead>
			(rfTrim_t*)&rfTrim);

	// Direct all doorbell interrupts permanently to CPE0
	HWREG (RFC_DBELL_BASE + RFC_DBELL_O_RFCPEISL) = 0;
    2786:	4b13      	ldr	r3, [pc, #76]	; (27d4 <phys_cc1350+0x170>)
    2788:	601d      	str	r5, [r3, #0]
}
    278a:	e8bd 8ff8 	ldmia.w	sp!, {r3, r4, r5, r6, r7, r8, r9, sl, fp, pc}
    278e:	bf00      	nop
    2790:	200001a4 	andcs	r0, r0, r4, lsr #3
    2794:	0000439e 	muleq	r0, lr, r3
    2798:	000043a3 	andeq	r4, r0, r3, lsr #7
    279c:	2000007c 	andcs	r0, r0, ip, ror r0
    27a0:	00001f25 	andeq	r1, r0, r5, lsr #30
    27a4:	200001b8 			; <UNDEFINED> instruction: 0x200001b8
    27a8:	2000019c 	mulcs	r0, ip, r1
    27ac:	200001a0 	andcs	r0, r0, r0, lsr #3
    27b0:	000043ab 	andeq	r4, r0, fp, lsr #7
    27b4:	2000018a 	andcs	r0, r0, sl, lsl #3
    27b8:	00002405 	andeq	r2, r0, r5, lsl #8
    27bc:	20000190 	mulcs	r0, r0, r1
    27c0:	20000054 	andcs	r0, r0, r4, asr r0
    27c4:	00004d10 	andeq	r4, r0, r0, lsl sp
    27c8:	2000003a 	andcs	r0, r0, sl, lsr r0
    27cc:	400821d0 	ldrdmi	r2, [r8], -r0
    27d0:	200001a8 	andcs	r0, r0, r8, lsr #3
    27d4:	40041018 	andmi	r1, r4, r8, lsl r0

000027d8 <tcv_clo_null>:
    27d8:	b510      	push	{r4, lr}
    27da:	4a07      	ldr	r2, [pc, #28]	; (27f8 <tcv_clo_null+0x20>)
    27dc:	4603      	mov	r3, r0
    27de:	6812      	ldr	r2, [r2, #0]
    27e0:	f04f 30ff 	mov.w	r0, #4294967295	; 0xffffffff
    27e4:	b132      	cbz	r2, 27f4 <tcv_clo_null+0x1c>
    27e6:	f852 4023 	ldr.w	r4, [r2, r3, lsl #2]
    27ea:	428c      	cmp	r4, r1
    27ec:	bf04      	itt	eq
    27ee:	f842 0023 	streq.w	r0, [r2, r3, lsl #2]
    27f2:	2000      	moveq	r0, #0
    27f4:	bd10      	pop	{r4, pc}
    27f6:	bf00      	nop
    27f8:	200001c8 	andcs	r0, r0, r8, asr #3

000027fc <tcv_rcv_null>:
    27fc:	4907      	ldr	r1, [pc, #28]	; (281c <tcv_rcv_null+0x20>)
    27fe:	9a00      	ldr	r2, [sp, #0]
    2800:	6809      	ldr	r1, [r1, #0]
    2802:	b909      	cbnz	r1, 2808 <tcv_rcv_null+0xc>
    2804:	2000      	movs	r0, #0
    2806:	4770      	bx	lr
    2808:	f851 1020 	ldr.w	r1, [r1, r0, lsl #2]
    280c:	6019      	str	r1, [r3, #0]
    280e:	3101      	adds	r1, #1
    2810:	d0f8      	beq.n	2804 <tcv_rcv_null+0x8>
    2812:	2300      	movs	r3, #0
    2814:	2002      	movs	r0, #2
    2816:	8053      	strh	r3, [r2, #2]
    2818:	8013      	strh	r3, [r2, #0]
    281a:	4770      	bx	lr
    281c:	200001c8 	andcs	r0, r0, r8, asr #3

00002820 <tcv_frm_null>:
    2820:	2000      	movs	r0, #0
    2822:	8048      	strh	r0, [r1, #2]
    2824:	8008      	strh	r0, [r1, #0]
    2826:	4770      	bx	lr

00002828 <tcv_out_null>:
    2828:	2004      	movs	r0, #4
    282a:	4770      	bx	lr

0000282c <tcv_xmt_null>:
    282c:	2001      	movs	r0, #1
    282e:	4770      	bx	lr

00002830 <tcv_ope_null>:
    2830:	b570      	push	{r4, r5, r6, lr}
    2832:	4c0f      	ldr	r4, [pc, #60]	; (2870 <tcv_ope_null+0x40>)
    2834:	4605      	mov	r5, r0
    2836:	6823      	ldr	r3, [r4, #0]
    2838:	460e      	mov	r6, r1
    283a:	b94b      	cbnz	r3, 2850 <tcv_ope_null+0x20>
    283c:	200c      	movs	r0, #12
    283e:	f7fe fdad 	bl	139c <__pi_malloc>
    2842:	6020      	str	r0, [r4, #0]
    2844:	b178      	cbz	r0, 2866 <tcv_ope_null+0x36>
    2846:	f04f 33ff 	mov.w	r3, #4294967295	; 0xffffffff
    284a:	e9c0 3300 	strd	r3, r3, [r0]
    284e:	6083      	str	r3, [r0, #8]
    2850:	6823      	ldr	r3, [r4, #0]
    2852:	f853 2025 	ldr.w	r2, [r3, r5, lsl #2]
    2856:	3201      	adds	r2, #1
    2858:	bf06      	itte	eq
    285a:	f843 6025 	streq.w	r6, [r3, r5, lsl #2]
    285e:	2000      	moveq	r0, #0
    2860:	f04f 30ff 	movne.w	r0, #4294967295	; 0xffffffff
    2864:	bd70      	pop	{r4, r5, r6, pc}
    2866:	2006      	movs	r0, #6
    2868:	4902      	ldr	r1, [pc, #8]	; (2874 <tcv_ope_null+0x44>)
    286a:	f7fd fe01 	bl	470 <__pi_syserror>
    286e:	bf00      	nop
    2870:	200001c8 	andcs	r0, r0, r8, asr #3
    2874:	00004d1c 	andeq	r4, r0, ip, lsl sp

00002878 <__outserial>:
#define	__cport		UART_A
#define	set_cport	CNOP

#endif	/* UART_DRIVER > 1 */

strand (__outserial, const char*)
    2878:	b5f7      	push	{r0, r1, r2, r4, r5, r6, r7, lr}
    287a:	4b18      	ldr	r3, [pc, #96]	; (28dc <__outserial+0x64>)
    287c:	681b      	ldr	r3, [r3, #0]
    287e:	689d      	ldr	r5, [r3, #8]
    2880:	b130      	cbz	r0, 2890 <__outserial+0x18>
    2882:	280a      	cmp	r0, #10
    2884:	d00d      	beq.n	28a2 <__outserial+0x2a>
	// prone
	goto __OM_WRITE;

	// proceed (OM_WRITE);

endstrand
    2886:	b003      	add	sp, #12
    2888:	e8bd 40f0 	ldmia.w	sp!, {r4, r5, r6, r7, lr}
    288c:	f7fe bb8c 	b.w	fa8 <__pi_badstate>
	ptr = data;
    2890:	4b13      	ldr	r3, [pc, #76]	; (28e0 <__outserial+0x68>)
    2892:	4c14      	ldr	r4, [pc, #80]	; (28e4 <__outserial+0x6c>)
    2894:	601d      	str	r5, [r3, #0]
	if (*ptr)
    2896:	782b      	ldrb	r3, [r5, #0]
    2898:	b1e3      	cbz	r3, 28d4 <__outserial+0x5c>
		len = strlen (ptr);
    289a:	4628      	mov	r0, r5
    289c:	f7fe fc8a 	bl	11b4 <__pi_strlen>
    28a0:	6020      	str	r0, [r4, #0]
	quant = io (OM_WRITE, __cport, WRITE, (char*)ptr, len);
    28a2:	4e0f      	ldr	r6, [pc, #60]	; (28e0 <__outserial+0x68>)
    28a4:	4f0f      	ldr	r7, [pc, #60]	; (28e4 <__outserial+0x6c>)
    28a6:	883b      	ldrh	r3, [r7, #0]
    28a8:	2201      	movs	r2, #1
    28aa:	9300      	str	r3, [sp, #0]
    28ac:	2100      	movs	r1, #0
    28ae:	6833      	ldr	r3, [r6, #0]
    28b0:	200a      	movs	r0, #10
    28b2:	f7fe fcb1 	bl	1218 <io>
	ptr += quant;
    28b6:	6833      	ldr	r3, [r6, #0]
	len -= quant;
    28b8:	683c      	ldr	r4, [r7, #0]
	ptr += quant;
    28ba:	4403      	add	r3, r0
	len -= quant;
    28bc:	1a24      	subs	r4, r4, r0
	ptr += quant;
    28be:	6033      	str	r3, [r6, #0]
	len -= quant;
    28c0:	603c      	str	r4, [r7, #0]
	if (len == 0) {
    28c2:	2c00      	cmp	r4, #0
    28c4:	d1ef      	bne.n	28a6 <__outserial+0x2e>
		ufree (data);
    28c6:	4628      	mov	r0, r5
    28c8:	f7fe fd1c 	bl	1304 <__pi_free>
		finish;
    28cc:	4620      	mov	r0, r4
    28ce:	f7fe fd3d 	bl	134c <kill>
    28d2:	e7e8      	b.n	28a6 <__outserial+0x2e>
		len = ptr [1] +3; // 3: 0x00, len, 0x04
    28d4:	786b      	ldrb	r3, [r5, #1]
    28d6:	3303      	adds	r3, #3
    28d8:	6023      	str	r3, [r4, #0]
    28da:	e7e2      	b.n	28a2 <__outserial+0x2a>
    28dc:	20000230 	andcs	r0, r0, r0, lsr r2
    28e0:	200001d0 	ldrdcs	r0, [r0], -r0	; <UNPREDICTABLE>
    28e4:	200001cc 	andcs	r0, r0, ip, asr #3

000028e8 <__inserial>:
#define	IM_INIT		0
#define	IM_READ		1
#define IM_BIN		2
#define IM_BINL		3

strand (__inserial, address)
    28e8:	b5f7      	push	{r0, r1, r2, r4, r5, r6, r7, lr}
    28ea:	4d42      	ldr	r5, [pc, #264]	; (29f4 <__inserial+0x10c>)
    28ec:	682a      	ldr	r2, [r5, #0]
    28ee:	6894      	ldr	r4, [r2, #8]
    28f0:	2803      	cmp	r0, #3
    28f2:	d87a      	bhi.n	29ea <__inserial+0x102>
    28f4:	e8df f000 	tbb	[pc, r0]
    28f8:	5d481802 	stclpl	8, cr1, [r8, #-8]
	static int len;
	int quant;

  entry (IM_INIT)

	if (__inpline != NULL)
    28fc:	4b3e      	ldr	r3, [pc, #248]	; (29f8 <__inserial+0x110>)
    28fe:	681b      	ldr	r3, [r3, #0]
    2900:	b113      	cbz	r3, 2908 <__inserial+0x20>
		/* Never overwrite previous unclaimed stuff */
		finish;
    2902:	2000      	movs	r0, #0
    2904:	f7fe fd22 	bl	134c <kill>

	// On eCOG char* is non-trivially upgraded from 'address'
	if ((ptr = (char*) (data = umalloc (MAX_LINE_LENGTH + 1))) == NULL) {
    2908:	2040      	movs	r0, #64	; 0x40
    290a:	f7fe fd47 	bl	139c <__pi_malloc>
    290e:	4b3b      	ldr	r3, [pc, #236]	; (29fc <__inserial+0x114>)
    2910:	4604      	mov	r4, r0
    2912:	6018      	str	r0, [r3, #0]
    2914:	b918      	cbnz	r0, 291e <__inserial+0x36>
		/*
		 * We have to wait for memory
		 */
		umwait (IM_INIT);
    2916:	f7fe fdaf 	bl	1478 <__pi_waitmem>
		release;
    291a:	f7fe f967 	bl	bec <__pi_release>
	}
	savedata (data);
	len = MAX_LINE_LENGTH;
    291e:	223f      	movs	r2, #63	; 0x3f
	savedata (data);
    2920:	682b      	ldr	r3, [r5, #0]
    2922:	6098      	str	r0, [r3, #8]
	len = MAX_LINE_LENGTH;
    2924:	4b36      	ldr	r3, [pc, #216]	; (2a00 <__inserial+0x118>)
    2926:	601a      	str	r2, [r3, #0]
	/* Make sure this doesn't change while we are reading */
	set_cport;

  entry (IM_READ)

	io (IM_READ, __cport, READ, ptr, 1);
    2928:	2001      	movs	r0, #1
    292a:	2200      	movs	r2, #0
    292c:	4d33      	ldr	r5, [pc, #204]	; (29fc <__inserial+0x114>)
    292e:	9000      	str	r0, [sp, #0]
    2930:	682b      	ldr	r3, [r5, #0]
    2932:	4611      	mov	r1, r2
    2934:	f7fe fc70 	bl	1218 <io>
	if (ptr == (char*) data) { // new line
    2938:	682b      	ldr	r3, [r5, #0]
    293a:	42a3      	cmp	r3, r4
    293c:	d10d      	bne.n	295a <__inserial+0x72>
		if (*ptr == '\0') { // bin cmd
    293e:	7823      	ldrb	r3, [r4, #0]
    2940:	b923      	cbnz	r3, 294c <__inserial+0x64>
			ptr++;
    2942:	1c63      	adds	r3, r4, #1
			proceed (IM_BIN);
    2944:	2002      	movs	r0, #2
			ptr++;
    2946:	602b      	str	r3, [r5, #0]
			proceed (IM_BIN);
    2948:	f7fe fbb6 	bl	10b8 <proceed>
		}

		if (*ptr < 0x20)
    294c:	682b      	ldr	r3, [r5, #0]
    294e:	781b      	ldrb	r3, [r3, #0]
    2950:	2b1f      	cmp	r3, #31
    2952:	d802      	bhi.n	295a <__inserial+0x72>
			/* Ignore codes below space at the beginning of line */
			proceed (IM_READ);
    2954:	2001      	movs	r0, #1
    2956:	f7fe fbaf 	bl	10b8 <proceed>
	}
	if (*ptr == '\n' || *ptr == '\r') {
    295a:	682b      	ldr	r3, [r5, #0]
    295c:	781a      	ldrb	r2, [r3, #0]
    295e:	2a0a      	cmp	r2, #10
    2960:	d001      	beq.n	2966 <__inserial+0x7e>
    2962:	2a0d      	cmp	r2, #13
    2964:	d105      	bne.n	2972 <__inserial+0x8a>
		*ptr = '\0';
    2966:	2000      	movs	r0, #0
    2968:	7018      	strb	r0, [r3, #0]
		__inpline = (char*)data;
    296a:	4b23      	ldr	r3, [pc, #140]	; (29f8 <__inserial+0x110>)
    296c:	601c      	str	r4, [r3, #0]
		finish;
    296e:	f7fe fced 	bl	134c <kill>
	}

	if (len) {
    2972:	4923      	ldr	r1, [pc, #140]	; (2a00 <__inserial+0x118>)
    2974:	680b      	ldr	r3, [r1, #0]
    2976:	b123      	cbz	r3, 2982 <__inserial+0x9a>
		ptr++;
    2978:	682a      	ldr	r2, [r5, #0]
		len--;
    297a:	3b01      	subs	r3, #1
		ptr++;
    297c:	3201      	adds	r2, #1
    297e:	602a      	str	r2, [r5, #0]
		len--;
    2980:	600b      	str	r3, [r1, #0]
	}

	proceed (IM_READ);
    2982:	2001      	movs	r0, #1
    2984:	f7fe fb98 	bl	10b8 <proceed>

  entry (IM_BIN)

	io (IM_BIN, __cport, READ, ptr, 1);
    2988:	2301      	movs	r3, #1
    298a:	2200      	movs	r2, #0
    298c:	4d1b      	ldr	r5, [pc, #108]	; (29fc <__inserial+0x114>)
    298e:	9300      	str	r3, [sp, #0]
    2990:	4611      	mov	r1, r2
    2992:	682b      	ldr	r3, [r5, #0]
    2994:	2002      	movs	r0, #2
    2996:	f7fe fc3f 	bl	1218 <io>
	len -= 2;
    299a:	4819      	ldr	r0, [pc, #100]	; (2a00 <__inserial+0x118>)
    299c:	6803      	ldr	r3, [r0, #0]
    299e:	1e9a      	subs	r2, r3, #2
	if (len > *ptr + 1) // 1 for 0x04
    29a0:	682b      	ldr	r3, [r5, #0]
    29a2:	f813 1b01 	ldrb.w	r1, [r3], #1
    29a6:	3101      	adds	r1, #1
		len = *ptr + 1;
    29a8:	4291      	cmp	r1, r2
    29aa:	bfd4      	ite	le
    29ac:	6001      	strle	r1, [r0, #0]
    29ae:	6002      	strgt	r2, [r0, #0]
	ptr++;
    29b0:	602b      	str	r3, [r5, #0]

  entry (IM_BINL)

	quant = io (IM_BINL, __cport, READ, ptr, len);
    29b2:	2200      	movs	r2, #0
    29b4:	4f12      	ldr	r7, [pc, #72]	; (2a00 <__inserial+0x118>)
    29b6:	4d11      	ldr	r5, [pc, #68]	; (29fc <__inserial+0x114>)
    29b8:	883b      	ldrh	r3, [r7, #0]
    29ba:	4611      	mov	r1, r2
    29bc:	9300      	str	r3, [sp, #0]
    29be:	682b      	ldr	r3, [r5, #0]
    29c0:	2003      	movs	r0, #3
    29c2:	f7fe fc29 	bl	1218 <io>
	len -= quant;
    29c6:	683b      	ldr	r3, [r7, #0]
	quant = io (IM_BINL, __cport, READ, ptr, len);
    29c8:	4606      	mov	r6, r0
	len -= quant;
    29ca:	1a18      	subs	r0, r3, r0
    29cc:	6038      	str	r0, [r7, #0]
	if (len == 0) {
    29ce:	b918      	cbnz	r0, 29d8 <__inserial+0xf0>
		__inpline = (char*)data;
    29d0:	4b09      	ldr	r3, [pc, #36]	; (29f8 <__inserial+0x110>)
    29d2:	601c      	str	r4, [r3, #0]
		finish;
    29d4:	f7fe fcba 	bl	134c <kill>
	}
	ptr += quant;
    29d8:	6828      	ldr	r0, [r5, #0]
    29da:	4430      	add	r0, r6
    29dc:	6028      	str	r0, [r5, #0]
	proceed (IM_BINL);
    29de:	2003      	movs	r0, #3

endstrand
    29e0:	b003      	add	sp, #12
    29e2:	e8bd 40f0 	ldmia.w	sp!, {r4, r5, r6, r7, lr}
	proceed (IM_BINL);
    29e6:	f7fe bb67 	b.w	10b8 <proceed>
endstrand
    29ea:	b003      	add	sp, #12
    29ec:	e8bd 40f0 	ldmia.w	sp!, {r4, r5, r6, r7, lr}
    29f0:	f7fe bada 	b.w	fa8 <__pi_badstate>
    29f4:	20000230 	andcs	r0, r0, r0, lsr r2
    29f8:	200001d4 	ldrdcs	r0, [r0], -r4
    29fc:	200001dc 	ldrdcs	r0, [r0], -ip
    2a00:	200001d8 	ldrdcs	r0, [r0], -r8

00002a04 <outc.5724>:

	char c;
	word d;

	void outc (word c) {
		if (res && (d < n))
    2a04:	f8dc 2000 	ldr.w	r2, [ip]
    2a08:	b132      	cbz	r2, 2a18 <outc.5724+0x14>
    2a0a:	f8bc 3006 	ldrh.w	r3, [ip, #6]
    2a0e:	f8bc 1004 	ldrh.w	r1, [ip, #4]
    2a12:	4299      	cmp	r1, r3
			// Store if there is a buffer ...
			res [d] = (char) c;
    2a14:	bf88      	it	hi
